Archive member included to satisfy reference by file (symbol)

/usr/lib/gcc/arm-none-eabi/13.2.0/../../../../arm-none-eabi/lib/thumb/v7e-m+fp/hard/libc_nano.a(libc_a-atexit.o)
                              /usr/lib/gcc/arm-none-eabi/13.2.0/../../../../arm-none-eabi/lib/thumb/v7e-m+fp/hard/crt0.o (atexit)
/usr/lib/gcc/arm-none-eabi/13.2.0/../../../../arm-none-eabi/lib/thumb/v7e-m+fp/hard/libc_nano.a(libc_a-exit.o)
                              /usr/lib/gcc/arm-none-eabi/13.2.0/../../../../arm-none-eabi/lib/thumb/v7e-m+fp/hard/crt0.o (exit)
/usr/lib/gcc/arm-none-eabi/13.2.0/../../../../arm-none-eabi/lib/thumb/v7e-m+fp/hard/libc_nano.a(libc_a-findfp.o)
                              /usr/lib/gcc/arm-none-eabi/13.2.0/../../../../arm-none-eabi/lib/thumb/v7e-m+fp/hard/libc_nano.a(libc_a-exit.o) (__stdio_exit_handler)
/usr/lib/gcc/arm-none-eabi/13.2.0/../../../../arm-none-eabi/lib/thumb/v7e-m+fp/hard/libc_nano.a(libc_a-fwalk.o)
                              /usr/lib/gcc/arm-none-eabi/13.2.0/../../../../arm-none-eabi/lib/thumb/v7e-m+fp/hard/libc_nano.a(libc_a-findfp.o) (_fwalk_sglue)
/usr/lib/gcc/arm-none-eabi/13.2.0/../../../../arm-none-eabi/lib/thumb/v7e-m+fp/hard/libc_nano.a(libc_a-stdio.o)
                              /usr/lib/gcc/arm-none-eabi/13.2.0/../../../../arm-none-eabi/lib/thumb/v7e-m+fp/hard/libc_nano.a(libc_a-findfp.o) (__sread)
/usr/lib/gcc/arm-none-eabi/13.2.0/../../../../arm-none-eabi/lib/thumb/v7e-m+fp/hard/libc_nano.a(libc_a-memset.o)
                              /usr/lib/gcc/arm-none-eabi/13.2.0/../../../../arm-none-eabi/lib/thumb/v7e-m+fp/hard/crt0.o (memset)
/usr/lib/gcc/arm-none-eabi/13.2.0/../../../../arm-none-eabi/lib/thumb/v7e-m+fp/hard/libc_nano.a(libc_a-closer.o)
                              /usr/lib/gcc/arm-none-eabi/13.2.0/../../../../arm-none-eabi/lib/thumb/v7e-m+fp/hard/libc_nano.a(libc_a-stdio.o) (_close_r)
/usr/lib/gcc/arm-none-eabi/13.2.0/../../../../arm-none-eabi/lib/thumb/v7e-m+fp/hard/libc_nano.a(libc_a-reent.o)
                              /usr/lib/gcc/arm-none-eabi/13.2.0/../../../../arm-none-eabi/lib/thumb/v7e-m+fp/hard/libc_nano.a(libc_a-closer.o) (errno)
/usr/lib/gcc/arm-none-eabi/13.2.0/../../../../arm-none-eabi/lib/thumb/v7e-m+fp/hard/libc_nano.a(libc_a-impure.o)
                              /usr/lib/gcc/arm-none-eabi/13.2.0/../../../../arm-none-eabi/lib/thumb/v7e-m+fp/hard/libc_nano.a(libc_a-reent.o) (_impure_ptr)
/usr/lib/gcc/arm-none-eabi/13.2.0/../../../../arm-none-eabi/lib/thumb/v7e-m+fp/hard/libc_nano.a(libc_a-lseekr.o)
                              /usr/lib/gcc/arm-none-eabi/13.2.0/../../../../arm-none-eabi/lib/thumb/v7e-m+fp/hard/libc_nano.a(libc_a-stdio.o) (_lseek_r)
/usr/lib/gcc/arm-none-eabi/13.2.0/../../../../arm-none-eabi/lib/thumb/v7e-m+fp/hard/libc_nano.a(libc_a-readr.o)
                              /usr/lib/gcc/arm-none-eabi/13.2.0/../../../../arm-none-eabi/lib/thumb/v7e-m+fp/hard/libc_nano.a(libc_a-stdio.o) (_read_r)
/usr/lib/gcc/arm-none-eabi/13.2.0/../../../../arm-none-eabi/lib/thumb/v7e-m+fp/hard/libc_nano.a(libc_a-writer.o)
                              /usr/lib/gcc/arm-none-eabi/13.2.0/../../../../arm-none-eabi/lib/thumb/v7e-m+fp/hard/libc_nano.a(libc_a-stdio.o) (_write_r)
/usr/lib/gcc/arm-none-eabi/13.2.0/../../../../arm-none-eabi/lib/thumb/v7e-m+fp/hard/libc_nano.a(libc_a-init.o)
                              /usr/lib/gcc/arm-none-eabi/13.2.0/../../../../arm-none-eabi/lib/thumb/v7e-m+fp/hard/crt0.o (__libc_init_array)
/usr/lib/gcc/arm-none-eabi/13.2.0/../../../../arm-none-eabi/lib/thumb/v7e-m+fp/hard/libc_nano.a(libc_a-fini.o)
                              /usr/lib/gcc/arm-none-eabi/13.2.0/../../../../arm-none-eabi/lib/thumb/v7e-m+fp/hard/crt0.o (__libc_fini_array)
/usr/lib/gcc/arm-none-eabi/13.2.0/../../../../arm-none-eabi/lib/thumb/v7e-m+fp/hard/libc_nano.a(libc_a-lock.o)
                              /usr/lib/gcc/arm-none-eabi/13.2.0/../../../../arm-none-eabi/lib/thumb/v7e-m+fp/hard/libc_nano.a(libc_a-findfp.o) (__retarget_lock_init_recursive)
/usr/lib/gcc/arm-none-eabi/13.2.0/../../../../arm-none-eabi/lib/thumb/v7e-m+fp/hard/libc_nano.a(libc_a-__atexit.o)
                              /usr/lib/gcc/arm-none-eabi/13.2.0/../../../../arm-none-eabi/lib/thumb/v7e-m+fp/hard/libc_nano.a(libc_a-atexit.o) (__register_exitproc)
/usr/lib/gcc/arm-none-eabi/13.2.0/../../../../arm-none-eabi/lib/thumb/v7e-m+fp/hard/libc_nano.a(libc_a-__call_atexit.o)
                              /usr/lib/gcc/arm-none-eabi/13.2.0/../../../../arm-none-eabi/lib/thumb/v7e-m+fp/hard/libc_nano.a(libc_a-__atexit.o) (__call_exitprocs)
/usr/lib/gcc/arm-none-eabi/13.2.0/../../../../arm-none-eabi/lib/thumb/v7e-m+fp/hard/libc_nano.a(libc_a-freer.o)
                              /usr/lib/gcc/arm-none-eabi/13.2.0/../../../../arm-none-eabi/lib/thumb/v7e-m+fp/hard/libc_nano.a(libc_a-reent.o) (_free_r)
/usr/lib/gcc/arm-none-eabi/13.2.0/../../../../arm-none-eabi/lib/thumb/v7e-m+fp/hard/libc_nano.a(libc_a-mallocr.o)
                              /usr/lib/gcc/arm-none-eabi/13.2.0/../../../../arm-none-eabi/lib/thumb/v7e-m+fp/hard/libc_nano.a(libc_a-findfp.o) (_malloc_r)
/usr/lib/gcc/arm-none-eabi/13.2.0/../../../../arm-none-eabi/lib/thumb/v7e-m+fp/hard/libc_nano.a(libc_a-mlock.o)
                              /usr/lib/gcc/arm-none-eabi/13.2.0/../../../../arm-none-eabi/lib/thumb/v7e-m+fp/hard/libc_nano.a(libc_a-freer.o) (__malloc_lock)
/usr/lib/gcc/arm-none-eabi/13.2.0/../../../../arm-none-eabi/lib/thumb/v7e-m+fp/hard/libc_nano.a(libc_a-fflush.o)
                              /usr/lib/gcc/arm-none-eabi/13.2.0/../../../../arm-none-eabi/lib/thumb/v7e-m+fp/hard/libc_nano.a(libc_a-findfp.o) (_fflush_r)
/usr/lib/gcc/arm-none-eabi/13.2.0/../../../../arm-none-eabi/lib/thumb/v7e-m+fp/hard/libc_nano.a(libc_a-sbrkr.o)
                              /usr/lib/gcc/arm-none-eabi/13.2.0/../../../../arm-none-eabi/lib/thumb/v7e-m+fp/hard/libc_nano.a(libc_a-mallocr.o) (_sbrk_r)
/usr/lib/gcc/arm-none-eabi/13.2.0/../../../../arm-none-eabi/lib/thumb/v7e-m+fp/hard/libnosys.a(close.o)
                              /usr/lib/gcc/arm-none-eabi/13.2.0/../../../../arm-none-eabi/lib/thumb/v7e-m+fp/hard/libc_nano.a(libc_a-closer.o) (_close)
/usr/lib/gcc/arm-none-eabi/13.2.0/../../../../arm-none-eabi/lib/thumb/v7e-m+fp/hard/libnosys.a(lseek.o)
                              /usr/lib/gcc/arm-none-eabi/13.2.0/../../../../arm-none-eabi/lib/thumb/v7e-m+fp/hard/libc_nano.a(libc_a-lseekr.o) (_lseek)
/usr/lib/gcc/arm-none-eabi/13.2.0/../../../../arm-none-eabi/lib/thumb/v7e-m+fp/hard/libnosys.a(read.o)
                              /usr/lib/gcc/arm-none-eabi/13.2.0/../../../../arm-none-eabi/lib/thumb/v7e-m+fp/hard/libc_nano.a(libc_a-readr.o) (_read)
/usr/lib/gcc/arm-none-eabi/13.2.0/../../../../arm-none-eabi/lib/thumb/v7e-m+fp/hard/libnosys.a(sbrk.o)
                              /usr/lib/gcc/arm-none-eabi/13.2.0/../../../../arm-none-eabi/lib/thumb/v7e-m+fp/hard/libc_nano.a(libc_a-sbrkr.o) (_sbrk)
/usr/lib/gcc/arm-none-eabi/13.2.0/../../../../arm-none-eabi/lib/thumb/v7e-m+fp/hard/libnosys.a(write.o)
                              /usr/lib/gcc/arm-none-eabi/13.2.0/../../../../arm-none-eabi/lib/thumb/v7e-m+fp/hard/libc_nano.a(libc_a-writer.o) (_write)
/usr/lib/gcc/arm-none-eabi/13.2.0/../../../../arm-none-eabi/lib/thumb/v7e-m+fp/hard/libnosys.a(_exit.o)
                              /usr/lib/gcc/arm-none-eabi/13.2.0/../../../../arm-none-eabi/lib/thumb/v7e-m+fp/hard/libc_nano.a(libc_a-exit.o) (_exit)
/usr/lib/gcc/arm-none-eabi/13.2.0/thumb/v7e-m+fp/hard/libgcc.a(_arm_muldf3.o)
                              /tmp/ccMZqXQe.ltrans0.ltrans.o (__aeabi_dmul)
/usr/lib/gcc/arm-none-eabi/13.2.0/thumb/v7e-m+fp/hard/libgcc.a(_arm_addsubdf3.o)
                              /tmp/ccMZqXQe.ltrans0.ltrans.o (__aeabi_dsub)
/usr/lib/gcc/arm-none-eabi/13.2.0/thumb/v7e-m+fp/hard/libgcc.a(_arm_muldivdf3.o)
                              /tmp/ccMZqXQe.ltrans0.ltrans.o (__aeabi_ddiv)
/usr/lib/gcc/arm-none-eabi/13.2.0/thumb/v7e-m+fp/hard/libgcc.a(_arm_cmpdf2.o)
                              /tmp/ccMZqXQe.ltrans0.ltrans.o (__aeabi_dcmpeq)
/usr/lib/gcc/arm-none-eabi/13.2.0/thumb/v7e-m+fp/hard/libgcc.a(_arm_fixdfsi.o)
                              /tmp/ccMZqXQe.ltrans0.ltrans.o (__aeabi_d2iz)
/usr/lib/gcc/arm-none-eabi/13.2.0/thumb/v7e-m+fp/hard/libgcc.a(_arm_fixunsdfsi.o)
                              /tmp/ccMZqXQe.ltrans0.ltrans.o (__aeabi_d2uiz)
/usr/lib/gcc/arm-none-eabi/13.2.0/thumb/v7e-m+fp/hard/libgcc.a(_aeabi_uldivmod.o)
                              /tmp/ccMZqXQe.ltrans0.ltrans.o (__aeabi_uldivmod)
/usr/lib/gcc/arm-none-eabi/13.2.0/thumb/v7e-m+fp/hard/libgcc.a(_udivmoddi4.o)
                              /usr/lib/gcc/arm-none-eabi/13.2.0/thumb/v7e-m+fp/hard/libgcc.a(_aeabi_uldivmod.o) (__udivmoddi4)
/usr/lib/gcc/arm-none-eabi/13.2.0/thumb/v7e-m+fp/hard/libgcc.a(_dvmd_tls.o)
                              /usr/lib/gcc/arm-none-eabi/13.2.0/thumb/v7e-m+fp/hard/libgcc.a(_aeabi_uldivmod.o) (__aeabi_ldiv0)
/usr/lib/gcc/arm-none-eabi/13.2.0/../../../../arm-none-eabi/lib/thumb/v7e-m+fp/hard/libc_nano.a(libc_a-memcpy-stub.o)
                              /tmp/ccMZqXQe.ltrans0.ltrans.o (memcpy)

Discarded input sections

 .gnu.warning._close
                0x00000000        0x0 /usr/lib/gcc/arm-none-eabi/13.2.0/../../../../arm-none-eabi/lib/thumb/v7e-m+fp/hard/libnosys.a(close.o)
 .gnu.warning._lseek
                0x00000000        0x0 /usr/lib/gcc/arm-none-eabi/13.2.0/../../../../arm-none-eabi/lib/thumb/v7e-m+fp/hard/libnosys.a(lseek.o)
 .gnu.warning._read
                0x00000000        0x0 /usr/lib/gcc/arm-none-eabi/13.2.0/../../../../arm-none-eabi/lib/thumb/v7e-m+fp/hard/libnosys.a(read.o)
 .gnu.warning._write
                0x00000000        0x0 /usr/lib/gcc/arm-none-eabi/13.2.0/../../../../arm-none-eabi/lib/thumb/v7e-m+fp/hard/libnosys.a(write.o)

Memory Configuration

Name             Origin             Length             Attributes
RAM              0x20000000         0x0001c000         xrw
*default*        0x00000000         0xffffffff

Linker script and memory map

LOAD /usr/lib/gcc/arm-none-eabi/13.2.0/thumb/v7e-m+fp/hard/crti.o
LOAD /usr/lib/gcc/arm-none-eabi/13.2.0/thumb/v7e-m+fp/hard/crtbegin.o
LOAD /usr/lib/gcc/arm-none-eabi/13.2.0/../../../../arm-none-eabi/lib/thumb/v7e-m+fp/hard/crt0.o
LOAD CMakeFiles/MD407-MATRIX.elf.dir/vectors.s.obj
LOAD CMakeFiles/MD407-MATRIX.elf.dir/device/src/system_stm32f4xx.c.obj
LOAD /tmp/ccMZqXQe.ltrans0.ltrans.o
LOAD CMakeFiles/MD407-MATRIX.elf.dir/libraries/FreeRTOS-Kernel/event_groups.c.obj
LOAD CMakeFiles/MD407-MATRIX.elf.dir/libraries/FreeRTOS-Kernel/list.c.obj
LOAD CMakeFiles/MD407-MATRIX.elf.dir/libraries/FreeRTOS-Kernel/queue.c.obj
LOAD CMakeFiles/MD407-MATRIX.elf.dir/libraries/FreeRTOS-Kernel/stream_buffer.c.obj
LOAD CMakeFiles/MD407-MATRIX.elf.dir/libraries/FreeRTOS-Kernel/tasks.c.obj
LOAD CMakeFiles/MD407-MATRIX.elf.dir/libraries/FreeRTOS-Kernel/timers.c.obj
LOAD CMakeFiles/MD407-MATRIX.elf.dir/libraries/FreeRTOS-Kernel/portable/GCC/ARM_CM4F/port.c.obj
LOAD CMakeFiles/MD407-MATRIX.elf.dir/driver/src/stm32f4xx_can.c.obj
LOAD CMakeFiles/MD407-MATRIX.elf.dir/driver/src/stm32f4xx_dac.c.obj
LOAD CMakeFiles/MD407-MATRIX.elf.dir/driver/src/stm32f4xx_exti.c.obj
LOAD CMakeFiles/MD407-MATRIX.elf.dir/driver/src/stm32f4xx_gpio.c.obj
LOAD CMakeFiles/MD407-MATRIX.elf.dir/driver/src/stm32f4xx_rcc.c.obj
LOAD CMakeFiles/MD407-MATRIX.elf.dir/driver/src/stm32f4xx_syscfg.c.obj
LOAD CMakeFiles/MD407-MATRIX.elf.dir/driver/src/stm32f4xx_tim.c.obj
LOAD CMakeFiles/MD407-MATRIX.elf.dir/driver/src/stm32f4xx_usart.c.obj
LOAD CMakeFiles/MD407-MATRIX.elf.dir/driver/src/stm32f4xx_rng.c.obj
LOAD CMakeFiles/MD407-MATRIX.elf.dir/driver/src/misc.c.obj
LOAD CMakeFiles/MD407-MATRIX.elf.dir/libraries/utils/timer.c.obj
LOAD CMakeFiles/MD407-MATRIX.elf.dir/libraries/utils/usart.c.obj
LOAD CMakeFiles/MD407-MATRIX.elf.dir/libraries/utils/printf.c.obj
LOAD CMakeFiles/MD407-MATRIX.elf.dir/libraries/utils/ftos.c.obj
LOAD CMakeFiles/MD407-MATRIX.elf.dir/startup.c.obj
LOAD CMakeFiles/MD407-MATRIX.elf.dir/src/main.c.obj
LOAD /usr/lib/gcc/arm-none-eabi/13.2.0/../../../../arm-none-eabi/lib/thumb/v7e-m+fp/hard/libm.a
START GROUP
LOAD /usr/lib/gcc/arm-none-eabi/13.2.0/thumb/v7e-m+fp/hard/libgcc.a
LOAD /usr/lib/gcc/arm-none-eabi/13.2.0/../../../../arm-none-eabi/lib/thumb/v7e-m+fp/hard/libc_nano.a
END GROUP
START GROUP
LOAD /usr/lib/gcc/arm-none-eabi/13.2.0/thumb/v7e-m+fp/hard/libgcc.a
LOAD /usr/lib/gcc/arm-none-eabi/13.2.0/../../../../arm-none-eabi/lib/thumb/v7e-m+fp/hard/libc_nano.a
LOAD /usr/lib/gcc/arm-none-eabi/13.2.0/../../../../arm-none-eabi/lib/thumb/v7e-m+fp/hard/libnosys.a
END GROUP
START GROUP
LOAD /usr/lib/gcc/arm-none-eabi/13.2.0/thumb/v7e-m+fp/hard/libgcc.a
LOAD /usr/lib/gcc/arm-none-eabi/13.2.0/../../../../arm-none-eabi/lib/thumb/v7e-m+fp/hard/libc_nano.a
LOAD /usr/lib/gcc/arm-none-eabi/13.2.0/../../../../arm-none-eabi/lib/thumb/v7e-m+fp/hard/libnosys.a
END GROUP
LOAD /usr/lib/gcc/arm-none-eabi/13.2.0/thumb/v7e-m+fp/hard/crtend.o
LOAD /usr/lib/gcc/arm-none-eabi/13.2.0/thumb/v7e-m+fp/hard/crtn.o

.text           0x20000000     0x53d0
                0x20000000                        . = ALIGN (0x4)
 *(.start_section)
 .start_section
                0x20000000       0x18 /tmp/ccMZqXQe.ltrans0.ltrans.o
                0x20000000                startup
 *(.text)
 .text          0x20000018        0x0 /usr/lib/gcc/arm-none-eabi/13.2.0/thumb/v7e-m+fp/hard/crti.o
 .text          0x20000018        0x0 /usr/lib/gcc/arm-none-eabi/13.2.0/thumb/v7e-m+fp/hard/crtbegin.o
 .text          0x20000018       0x70 /usr/lib/gcc/arm-none-eabi/13.2.0/../../../../arm-none-eabi/lib/thumb/v7e-m+fp/hard/crt0.o
                0x20000018                _stack_init
                0x20000020                _mainCRTStartup
                0x20000020                _start
 .text          0x20000088       0x14 CMakeFiles/MD407-MATRIX.elf.dir/vectors.s.obj
 *fill*         0x2000009c        0x4 
 .text          0x200000a0     0x3858 /tmp/ccMZqXQe.ltrans0.ltrans.o
                0x200007bc                SVC_Handler
                0x2000080c                SysTick_Handler
                0x20000838                PendSV_Handler
                0x20002eac                TIM5_IRQHandler
                0x2000351c                SystemInit
                0x20003568                vTaskSwitchContext
                0x2000383a                main
 .text          0x200038f8        0x0 /usr/lib/gcc/arm-none-eabi/13.2.0/../../../../arm-none-eabi/lib/thumb/v7e-m+fp/hard/libc_nano.a(libc_a-atexit.o)
 .text          0x200038f8        0x0 /usr/lib/gcc/arm-none-eabi/13.2.0/../../../../arm-none-eabi/lib/thumb/v7e-m+fp/hard/libc_nano.a(libc_a-exit.o)
 .text          0x200038f8        0x0 /usr/lib/gcc/arm-none-eabi/13.2.0/../../../../arm-none-eabi/lib/thumb/v7e-m+fp/hard/libc_nano.a(libc_a-findfp.o)
 .text          0x200038f8        0x0 /usr/lib/gcc/arm-none-eabi/13.2.0/../../../../arm-none-eabi/lib/thumb/v7e-m+fp/hard/libc_nano.a(libc_a-fwalk.o)
 .text          0x200038f8        0x0 /usr/lib/gcc/arm-none-eabi/13.2.0/../../../../arm-none-eabi/lib/thumb/v7e-m+fp/hard/libc_nano.a(libc_a-stdio.o)
 .text          0x200038f8        0x0 /usr/lib/gcc/arm-none-eabi/13.2.0/../../../../arm-none-eabi/lib/thumb/v7e-m+fp/hard/libc_nano.a(libc_a-memset.o)
 .text          0x200038f8        0x0 /usr/lib/gcc/arm-none-eabi/13.2.0/../../../../arm-none-eabi/lib/thumb/v7e-m+fp/hard/libc_nano.a(libc_a-closer.o)
 .text          0x200038f8        0x0 /usr/lib/gcc/arm-none-eabi/13.2.0/../../../../arm-none-eabi/lib/thumb/v7e-m+fp/hard/libc_nano.a(libc_a-reent.o)
 .text          0x200038f8        0x0 /usr/lib/gcc/arm-none-eabi/13.2.0/../../../../arm-none-eabi/lib/thumb/v7e-m+fp/hard/libc_nano.a(libc_a-impure.o)
 .text          0x200038f8        0x0 /usr/lib/gcc/arm-none-eabi/13.2.0/../../../../arm-none-eabi/lib/thumb/v7e-m+fp/hard/libc_nano.a(libc_a-lseekr.o)
 .text          0x200038f8        0x0 /usr/lib/gcc/arm-none-eabi/13.2.0/../../../../arm-none-eabi/lib/thumb/v7e-m+fp/hard/libc_nano.a(libc_a-readr.o)
 .text          0x200038f8        0x0 /usr/lib/gcc/arm-none-eabi/13.2.0/../../../../arm-none-eabi/lib/thumb/v7e-m+fp/hard/libc_nano.a(libc_a-writer.o)
 .text          0x200038f8        0x0 /usr/lib/gcc/arm-none-eabi/13.2.0/../../../../arm-none-eabi/lib/thumb/v7e-m+fp/hard/libc_nano.a(libc_a-init.o)
 .text          0x200038f8        0x0 /usr/lib/gcc/arm-none-eabi/13.2.0/../../../../arm-none-eabi/lib/thumb/v7e-m+fp/hard/libc_nano.a(libc_a-fini.o)
 .text          0x200038f8        0x0 /usr/lib/gcc/arm-none-eabi/13.2.0/../../../../arm-none-eabi/lib/thumb/v7e-m+fp/hard/libc_nano.a(libc_a-lock.o)
 .text          0x200038f8        0x0 /usr/lib/gcc/arm-none-eabi/13.2.0/../../../../arm-none-eabi/lib/thumb/v7e-m+fp/hard/libc_nano.a(libc_a-__atexit.o)
 .text          0x200038f8        0x0 /usr/lib/gcc/arm-none-eabi/13.2.0/../../../../arm-none-eabi/lib/thumb/v7e-m+fp/hard/libc_nano.a(libc_a-__call_atexit.o)
 .text          0x200038f8        0x0 /usr/lib/gcc/arm-none-eabi/13.2.0/../../../../arm-none-eabi/lib/thumb/v7e-m+fp/hard/libc_nano.a(libc_a-freer.o)
 .text          0x200038f8        0x0 /usr/lib/gcc/arm-none-eabi/13.2.0/../../../../arm-none-eabi/lib/thumb/v7e-m+fp/hard/libc_nano.a(libc_a-mallocr.o)
 .text          0x200038f8        0x0 /usr/lib/gcc/arm-none-eabi/13.2.0/../../../../arm-none-eabi/lib/thumb/v7e-m+fp/hard/libc_nano.a(libc_a-mlock.o)
 .text          0x200038f8        0x0 /usr/lib/gcc/arm-none-eabi/13.2.0/../../../../arm-none-eabi/lib/thumb/v7e-m+fp/hard/libc_nano.a(libc_a-fflush.o)
 .text          0x200038f8        0x0 /usr/lib/gcc/arm-none-eabi/13.2.0/../../../../arm-none-eabi/lib/thumb/v7e-m+fp/hard/libc_nano.a(libc_a-sbrkr.o)
 .text          0x200038f8        0x0 /usr/lib/gcc/arm-none-eabi/13.2.0/../../../../arm-none-eabi/lib/thumb/v7e-m+fp/hard/libc_nano.a(libc_a-memcpy-stub.o)
 .text          0x200038f8        0x0 /usr/lib/gcc/arm-none-eabi/13.2.0/../../../../arm-none-eabi/lib/thumb/v7e-m+fp/hard/libnosys.a(close.o)
 .text          0x200038f8        0x0 /usr/lib/gcc/arm-none-eabi/13.2.0/../../../../arm-none-eabi/lib/thumb/v7e-m+fp/hard/libnosys.a(lseek.o)
 .text          0x200038f8        0x0 /usr/lib/gcc/arm-none-eabi/13.2.0/../../../../arm-none-eabi/lib/thumb/v7e-m+fp/hard/libnosys.a(read.o)
 .text          0x200038f8        0x0 /usr/lib/gcc/arm-none-eabi/13.2.0/../../../../arm-none-eabi/lib/thumb/v7e-m+fp/hard/libnosys.a(sbrk.o)
 .text          0x200038f8        0x0 /usr/lib/gcc/arm-none-eabi/13.2.0/../../../../arm-none-eabi/lib/thumb/v7e-m+fp/hard/libnosys.a(write.o)
 .text          0x200038f8        0x0 /usr/lib/gcc/arm-none-eabi/13.2.0/../../../../arm-none-eabi/lib/thumb/v7e-m+fp/hard/libnosys.a(_exit.o)
 .text          0x200038f8      0x254 /usr/lib/gcc/arm-none-eabi/13.2.0/thumb/v7e-m+fp/hard/libgcc.a(_arm_muldf3.o)
 .text          0x20003b4c      0x378 /usr/lib/gcc/arm-none-eabi/13.2.0/thumb/v7e-m+fp/hard/libgcc.a(_arm_addsubdf3.o)
                0x20003b4c                __aeabi_drsub
                0x20003b54                __aeabi_dsub
                0x20003b54                __subdf3
                0x20003b58                __adddf3
                0x20003b58                __aeabi_dadd
                0x20003dd0                __aeabi_ui2d
                0x20003dd0                __floatunsidf
                0x20003df0                __floatsidf
                0x20003df0                __aeabi_i2d
                0x20003e14                __extendsfdf2
                0x20003e14                __aeabi_f2d
                0x20003e58                __aeabi_ul2d
                0x20003e58                __floatundidf
                0x20003e68                __floatdidf
                0x20003e68                __aeabi_l2d
 .text          0x20003ec4      0x424 /usr/lib/gcc/arm-none-eabi/13.2.0/thumb/v7e-m+fp/hard/libgcc.a(_arm_muldivdf3.o)
                0x20003ec4                __aeabi_dmul
                0x20003ec4                __muldf3
                0x20004118                __aeabi_ddiv
                0x20004118                __divdf3
 .text          0x200042e8      0x110 /usr/lib/gcc/arm-none-eabi/13.2.0/thumb/v7e-m+fp/hard/libgcc.a(_arm_cmpdf2.o)
                0x200042e8                __gtdf2
                0x200042e8                __gedf2
                0x200042f0                __ltdf2
                0x200042f0                __ledf2
                0x200042f8                __cmpdf2
                0x200042f8                __eqdf2
                0x200042f8                __nedf2
                0x20004374                __aeabi_cdrcmple
                0x20004384                __aeabi_cdcmple
                0x20004384                __aeabi_cdcmpeq
                0x20004394                __aeabi_dcmpeq
                0x200043a8                __aeabi_dcmplt
                0x200043bc                __aeabi_dcmple
                0x200043d0                __aeabi_dcmpge
                0x200043e4                __aeabi_dcmpgt
 .text          0x200043f8       0x50 /usr/lib/gcc/arm-none-eabi/13.2.0/thumb/v7e-m+fp/hard/libgcc.a(_arm_fixdfsi.o)
                0x200043f8                __fixdfsi
                0x200043f8                __aeabi_d2iz
 .text          0x20004448       0x40 /usr/lib/gcc/arm-none-eabi/13.2.0/thumb/v7e-m+fp/hard/libgcc.a(_arm_fixunsdfsi.o)
                0x20004448                __fixunsdfsi
                0x20004448                __aeabi_d2uiz
 .text          0x20004488       0x30 /usr/lib/gcc/arm-none-eabi/13.2.0/thumb/v7e-m+fp/hard/libgcc.a(_aeabi_uldivmod.o)
                0x20004488                __aeabi_uldivmod
 .text          0x200044b8        0x0 /usr/lib/gcc/arm-none-eabi/13.2.0/thumb/v7e-m+fp/hard/libgcc.a(_udivmoddi4.o)
 .text          0x200044b8        0x4 /usr/lib/gcc/arm-none-eabi/13.2.0/thumb/v7e-m+fp/hard/libgcc.a(_dvmd_tls.o)
                0x200044b8                __aeabi_ldiv0
                0x200044b8                __aeabi_idiv0
 .text          0x200044bc        0x0 /usr/lib/gcc/arm-none-eabi/13.2.0/thumb/v7e-m+fp/hard/crtend.o
 .text          0x200044bc        0x0 /usr/lib/gcc/arm-none-eabi/13.2.0/thumb/v7e-m+fp/hard/crtn.o
 *(.text.*)
 .text.__do_global_dtors_aux
                0x200044bc       0x24 /usr/lib/gcc/arm-none-eabi/13.2.0/thumb/v7e-m+fp/hard/crtbegin.o
 .text.frame_dummy
                0x200044e0       0x1c /usr/lib/gcc/arm-none-eabi/13.2.0/thumb/v7e-m+fp/hard/crtbegin.o
 .text.Reset_Handler
                0x200044fc       0x48 CMakeFiles/MD407-MATRIX.elf.dir/vectors.s.obj
                0x200044fc                Reset_Handler
 .text.Default_Handler
                0x20004544        0x2 CMakeFiles/MD407-MATRIX.elf.dir/vectors.s.obj
                0x20004544                RTC_Alarm_IRQHandler
                0x20004544                HASH_RNG_IRQHandler
                0x20004544                EXTI2_IRQHandler
                0x20004544                TIM8_CC_IRQHandler
                0x20004544                DebugMon_Handler
                0x20004544                TIM1_CC_IRQHandler
                0x20004544                DMA2_Stream5_IRQHandler
                0x20004544                HardFault_Handler
                0x20004544                DMA1_Stream5_IRQHandler
                0x20004544                PVD_IRQHandler
                0x20004544                SDIO_IRQHandler
                0x20004544                TAMP_STAMP_IRQHandler
                0x20004544                NMI_Handler
                0x20004544                CAN2_RX1_IRQHandler
                0x20004544                EXTI3_IRQHandler
                0x20004544                TIM8_TRG_COM_TIM14_IRQHandler
                0x20004544                TIM1_UP_TIM10_IRQHandler
                0x20004544                TIM8_UP_TIM13_IRQHandler
                0x20004544                I2C3_ER_IRQHandler
                0x20004544                EXTI0_IRQHandler
                0x20004544                I2C2_EV_IRQHandler
                0x20004544                DMA1_Stream2_IRQHandler
                0x20004544                CAN1_RX0_IRQHandler
                0x20004544                FPU_IRQHandler
                0x20004544                OTG_HS_WKUP_IRQHandler
                0x20004544                UsageFault_Handler
                0x20004544                CAN2_SCE_IRQHandler
                0x20004544                DMA2_Stream2_IRQHandler
                0x20004544                SPI1_IRQHandler
                0x20004544                TIM6_DAC_IRQHandler
                0x20004544                TIM1_BRK_TIM9_IRQHandler
                0x20004544                DCMI_IRQHandler
                0x20004544                CAN2_RX0_IRQHandler
                0x20004544                DMA2_Stream3_IRQHandler
                0x20004544                USART6_IRQHandler
                0x20004544                USART3_IRQHandler
                0x20004544                CRYP_IRQHandler
                0x20004544                CAN1_RX1_IRQHandler
                0x20004544                UART5_IRQHandler
                0x20004544                DMA2_Stream0_IRQHandler
                0x20004544                TIM4_IRQHandler
                0x20004544                I2C1_EV_IRQHandler
                0x20004544                DMA1_Stream6_IRQHandler
                0x20004544                DMA1_Stream1_IRQHandler
                0x20004544                UART4_IRQHandler
                0x20004544                TIM3_IRQHandler
                0x20004544                RCC_IRQHandler
                0x20004544                TIM8_BRK_TIM12_IRQHandler
                0x20004544                Default_Handler
                0x20004544                EXTI15_10_IRQHandler
                0x20004544                ADC_IRQHandler
                0x20004544                DMA1_Stream7_IRQHandler
                0x20004544                TIM7_IRQHandler
                0x20004544                CAN2_TX_IRQHandler
                0x20004544                DMA2_Stream7_IRQHandler
                0x20004544                I2C3_EV_IRQHandler
                0x20004544                EXTI9_5_IRQHandler
                0x20004544                RTC_WKUP_IRQHandler
                0x20004544                ETH_WKUP_IRQHandler
                0x20004544                SPI2_IRQHandler
                0x20004544                OTG_HS_EP1_IN_IRQHandler
                0x20004544                MemManage_Handler
                0x20004544                DMA1_Stream0_IRQHandler
                0x20004544                CAN1_TX_IRQHandler
                0x20004544                EXTI4_IRQHandler
                0x20004544                FSMC_IRQHandler
                0x20004544                ETH_IRQHandler
                0x20004544                OTG_HS_EP1_OUT_IRQHandler
                0x20004544                WWDG_IRQHandler
                0x20004544                TIM2_IRQHandler
                0x20004544                OTG_FS_WKUP_IRQHandler
                0x20004544                TIM1_TRG_COM_TIM11_IRQHandler
                0x20004544                OTG_HS_IRQHandler
                0x20004544                EXTI1_IRQHandler
                0x20004544                USART2_IRQHandler
                0x20004544                I2C2_ER_IRQHandler
                0x20004544                DMA2_Stream1_IRQHandler
                0x20004544                CAN1_SCE_IRQHandler
                0x20004544                FLASH_IRQHandler
                0x20004544                DMA2_Stream4_IRQHandler
                0x20004544                BusFault_Handler
                0x20004544                USART1_IRQHandler
                0x20004544                OTG_FS_IRQHandler
                0x20004544                SPI3_IRQHandler
                0x20004544                DMA1_Stream4_IRQHandler
                0x20004544                I2C1_ER_IRQHandler
                0x20004544                DMA2_Stream6_IRQHandler
                0x20004544                DMA1_Stream3_IRQHandler
 .text.atexit   0x20004546        0xc /usr/lib/gcc/arm-none-eabi/13.2.0/../../../../arm-none-eabi/lib/thumb/v7e-m+fp/hard/libc_nano.a(libc_a-atexit.o)
                0x20004546                atexit
 *fill*         0x20004552        0x2 
 .text.exit     0x20004554       0x24 /usr/lib/gcc/arm-none-eabi/13.2.0/../../../../arm-none-eabi/lib/thumb/v7e-m+fp/hard/libc_nano.a(libc_a-exit.o)
                0x20004554                exit
 .text.std      0x20004578       0x6c /usr/lib/gcc/arm-none-eabi/13.2.0/../../../../arm-none-eabi/lib/thumb/v7e-m+fp/hard/libc_nano.a(libc_a-findfp.o)
 .text.stdio_exit_handler
                0x200045e4       0x18 /usr/lib/gcc/arm-none-eabi/13.2.0/../../../../arm-none-eabi/lib/thumb/v7e-m+fp/hard/libc_nano.a(libc_a-findfp.o)
 .text.cleanup_stdio
                0x200045fc       0x40 /usr/lib/gcc/arm-none-eabi/13.2.0/../../../../arm-none-eabi/lib/thumb/v7e-m+fp/hard/libc_nano.a(libc_a-findfp.o)
 .text.__fp_lock
                0x2000463c       0x18 /usr/lib/gcc/arm-none-eabi/13.2.0/../../../../arm-none-eabi/lib/thumb/v7e-m+fp/hard/libc_nano.a(libc_a-findfp.o)
 .text.__fp_unlock
                0x20004654       0x18 /usr/lib/gcc/arm-none-eabi/13.2.0/../../../../arm-none-eabi/lib/thumb/v7e-m+fp/hard/libc_nano.a(libc_a-findfp.o)
 .text.global_stdio_init.part.0
                0x2000466c       0x3c /usr/lib/gcc/arm-none-eabi/13.2.0/../../../../arm-none-eabi/lib/thumb/v7e-m+fp/hard/libc_nano.a(libc_a-findfp.o)
 .text.__sfp_lock_acquire
                0x200046a8        0xc /usr/lib/gcc/arm-none-eabi/13.2.0/../../../../arm-none-eabi/lib/thumb/v7e-m+fp/hard/libc_nano.a(libc_a-findfp.o)
                0x200046a8                __sfp_lock_acquire
 .text.__sfp_lock_release
                0x200046b4        0xc /usr/lib/gcc/arm-none-eabi/13.2.0/../../../../arm-none-eabi/lib/thumb/v7e-m+fp/hard/libc_nano.a(libc_a-findfp.o)
                0x200046b4                __sfp_lock_release
 .text.__sfp    0x200046c0       0xa4 /usr/lib/gcc/arm-none-eabi/13.2.0/../../../../arm-none-eabi/lib/thumb/v7e-m+fp/hard/libc_nano.a(libc_a-findfp.o)
                0x200046c0                __sfp
 .text.__sinit  0x20004764       0x30 /usr/lib/gcc/arm-none-eabi/13.2.0/../../../../arm-none-eabi/lib/thumb/v7e-m+fp/hard/libc_nano.a(libc_a-findfp.o)
                0x20004764                __sinit
 .text.__fp_lock_all
                0x20004794       0x1c /usr/lib/gcc/arm-none-eabi/13.2.0/../../../../arm-none-eabi/lib/thumb/v7e-m+fp/hard/libc_nano.a(libc_a-findfp.o)
                0x20004794                __fp_lock_all
 .text.__fp_unlock_all
                0x200047b0       0x1c /usr/lib/gcc/arm-none-eabi/13.2.0/../../../../arm-none-eabi/lib/thumb/v7e-m+fp/hard/libc_nano.a(libc_a-findfp.o)
                0x200047b0                __fp_unlock_all
 .text._fwalk_sglue
                0x200047cc       0x3c /usr/lib/gcc/arm-none-eabi/13.2.0/../../../../arm-none-eabi/lib/thumb/v7e-m+fp/hard/libc_nano.a(libc_a-fwalk.o)
                0x200047cc                _fwalk_sglue
 .text.__sread  0x20004808       0x22 /usr/lib/gcc/arm-none-eabi/13.2.0/../../../../arm-none-eabi/lib/thumb/v7e-m+fp/hard/libc_nano.a(libc_a-stdio.o)
                0x20004808                __sread
 .text.__seofread
                0x2000482a        0x4 /usr/lib/gcc/arm-none-eabi/13.2.0/../../../../arm-none-eabi/lib/thumb/v7e-m+fp/hard/libc_nano.a(libc_a-stdio.o)
                0x2000482a                __seofread
 .text.__swrite
                0x2000482e       0x38 /usr/lib/gcc/arm-none-eabi/13.2.0/../../../../arm-none-eabi/lib/thumb/v7e-m+fp/hard/libc_nano.a(libc_a-stdio.o)
                0x2000482e                __swrite
 .text.__sseek  0x20004866       0x24 /usr/lib/gcc/arm-none-eabi/13.2.0/../../../../arm-none-eabi/lib/thumb/v7e-m+fp/hard/libc_nano.a(libc_a-stdio.o)
                0x20004866                __sseek
 .text.__sclose
                0x2000488a        0x8 /usr/lib/gcc/arm-none-eabi/13.2.0/../../../../arm-none-eabi/lib/thumb/v7e-m+fp/hard/libc_nano.a(libc_a-stdio.o)
                0x2000488a                __sclose
 .text.memset   0x20004892       0x10 /usr/lib/gcc/arm-none-eabi/13.2.0/../../../../arm-none-eabi/lib/thumb/v7e-m+fp/hard/libc_nano.a(libc_a-memset.o)
                0x20004892                memset
 *fill*         0x200048a2        0x2 
 .text._close_r
                0x200048a4       0x20 /usr/lib/gcc/arm-none-eabi/13.2.0/../../../../arm-none-eabi/lib/thumb/v7e-m+fp/hard/libc_nano.a(libc_a-closer.o)
                0x200048a4                _close_r
 .text._reclaim_reent
                0x200048c4       0xbc /usr/lib/gcc/arm-none-eabi/13.2.0/../../../../arm-none-eabi/lib/thumb/v7e-m+fp/hard/libc_nano.a(libc_a-reent.o)
                0x200048c4                _reclaim_reent
 .text._lseek_r
                0x20004980       0x24 /usr/lib/gcc/arm-none-eabi/13.2.0/../../../../arm-none-eabi/lib/thumb/v7e-m+fp/hard/libc_nano.a(libc_a-lseekr.o)
                0x20004980                _lseek_r
 .text._read_r  0x200049a4       0x24 /usr/lib/gcc/arm-none-eabi/13.2.0/../../../../arm-none-eabi/lib/thumb/v7e-m+fp/hard/libc_nano.a(libc_a-readr.o)
                0x200049a4                _read_r
 .text._write_r
                0x200049c8       0x24 /usr/lib/gcc/arm-none-eabi/13.2.0/../../../../arm-none-eabi/lib/thumb/v7e-m+fp/hard/libc_nano.a(libc_a-writer.o)
                0x200049c8                _write_r
 .text.__libc_init_array
                0x200049ec       0x48 /usr/lib/gcc/arm-none-eabi/13.2.0/../../../../arm-none-eabi/lib/thumb/v7e-m+fp/hard/libc_nano.a(libc_a-init.o)
                0x200049ec                __libc_init_array
 .text.__libc_fini_array
                0x20004a34       0x28 /usr/lib/gcc/arm-none-eabi/13.2.0/../../../../arm-none-eabi/lib/thumb/v7e-m+fp/hard/libc_nano.a(libc_a-fini.o)
                0x20004a34                __libc_fini_array
 .text.__retarget_lock_init
                0x20004a5c        0x2 /usr/lib/gcc/arm-none-eabi/13.2.0/../../../../arm-none-eabi/lib/thumb/v7e-m+fp/hard/libc_nano.a(libc_a-lock.o)
                0x20004a5c                __retarget_lock_init
 .text.__retarget_lock_init_recursive
                0x20004a5e        0x2 /usr/lib/gcc/arm-none-eabi/13.2.0/../../../../arm-none-eabi/lib/thumb/v7e-m+fp/hard/libc_nano.a(libc_a-lock.o)
                0x20004a5e                __retarget_lock_init_recursive
 .text.__retarget_lock_close
                0x20004a60        0x2 /usr/lib/gcc/arm-none-eabi/13.2.0/../../../../arm-none-eabi/lib/thumb/v7e-m+fp/hard/libc_nano.a(libc_a-lock.o)
                0x20004a60                __retarget_lock_close
 .text.__retarget_lock_close_recursive
                0x20004a62        0x2 /usr/lib/gcc/arm-none-eabi/13.2.0/../../../../arm-none-eabi/lib/thumb/v7e-m+fp/hard/libc_nano.a(libc_a-lock.o)
                0x20004a62                __retarget_lock_close_recursive
 .text.__retarget_lock_acquire
                0x20004a64        0x2 /usr/lib/gcc/arm-none-eabi/13.2.0/../../../../arm-none-eabi/lib/thumb/v7e-m+fp/hard/libc_nano.a(libc_a-lock.o)
                0x20004a64                __retarget_lock_acquire
 .text.__retarget_lock_acquire_recursive
                0x20004a66        0x2 /usr/lib/gcc/arm-none-eabi/13.2.0/../../../../arm-none-eabi/lib/thumb/v7e-m+fp/hard/libc_nano.a(libc_a-lock.o)
                0x20004a66                __retarget_lock_acquire_recursive
 .text.__retarget_lock_try_acquire
                0x20004a68        0x4 /usr/lib/gcc/arm-none-eabi/13.2.0/../../../../arm-none-eabi/lib/thumb/v7e-m+fp/hard/libc_nano.a(libc_a-lock.o)
                0x20004a68                __retarget_lock_try_acquire
 .text.__retarget_lock_try_acquire_recursive
                0x20004a6c        0x4 /usr/lib/gcc/arm-none-eabi/13.2.0/../../../../arm-none-eabi/lib/thumb/v7e-m+fp/hard/libc_nano.a(libc_a-lock.o)
                0x20004a6c                __retarget_lock_try_acquire_recursive
 .text.__retarget_lock_release
                0x20004a70        0x2 /usr/lib/gcc/arm-none-eabi/13.2.0/../../../../arm-none-eabi/lib/thumb/v7e-m+fp/hard/libc_nano.a(libc_a-lock.o)
                0x20004a70                __retarget_lock_release
 .text.__retarget_lock_release_recursive
                0x20004a72        0x2 /usr/lib/gcc/arm-none-eabi/13.2.0/../../../../arm-none-eabi/lib/thumb/v7e-m+fp/hard/libc_nano.a(libc_a-lock.o)
                0x20004a72                __retarget_lock_release_recursive
 .text.__register_exitproc
                0x20004a74       0xb8 /usr/lib/gcc/arm-none-eabi/13.2.0/../../../../arm-none-eabi/lib/thumb/v7e-m+fp/hard/libc_nano.a(libc_a-__atexit.o)
                0x20004a74                __register_exitproc
 .text.__call_exitprocs
                0x20004b2c       0xbc /usr/lib/gcc/arm-none-eabi/13.2.0/../../../../arm-none-eabi/lib/thumb/v7e-m+fp/hard/libc_nano.a(libc_a-__call_atexit.o)
                0x20004b2c                __call_exitprocs
 .text._free_r  0x20004be8       0x94 /usr/lib/gcc/arm-none-eabi/13.2.0/../../../../arm-none-eabi/lib/thumb/v7e-m+fp/hard/libc_nano.a(libc_a-freer.o)
                0x20004be8                _free_r
 .text.sbrk_aligned
                0x20004c7c       0x44 /usr/lib/gcc/arm-none-eabi/13.2.0/../../../../arm-none-eabi/lib/thumb/v7e-m+fp/hard/libc_nano.a(libc_a-mallocr.o)
 .text._malloc_r
                0x20004cc0      0x100 /usr/lib/gcc/arm-none-eabi/13.2.0/../../../../arm-none-eabi/lib/thumb/v7e-m+fp/hard/libc_nano.a(libc_a-mallocr.o)
                0x20004cc0                _malloc_r
 .text.__malloc_lock
                0x20004dc0        0xc /usr/lib/gcc/arm-none-eabi/13.2.0/../../../../arm-none-eabi/lib/thumb/v7e-m+fp/hard/libc_nano.a(libc_a-mlock.o)
                0x20004dc0                __malloc_lock
 .text.__malloc_unlock
                0x20004dcc        0xc /usr/lib/gcc/arm-none-eabi/13.2.0/../../../../arm-none-eabi/lib/thumb/v7e-m+fp/hard/libc_nano.a(libc_a-mlock.o)
                0x20004dcc                __malloc_unlock
 .text.__sflush_r
                0x20004dd8      0x108 /usr/lib/gcc/arm-none-eabi/13.2.0/../../../../arm-none-eabi/lib/thumb/v7e-m+fp/hard/libc_nano.a(libc_a-fflush.o)
                0x20004dd8                __sflush_r
 .text._fflush_r
                0x20004ee0       0x50 /usr/lib/gcc/arm-none-eabi/13.2.0/../../../../arm-none-eabi/lib/thumb/v7e-m+fp/hard/libc_nano.a(libc_a-fflush.o)
                0x20004ee0                _fflush_r
 .text.fflush   0x20004f30       0x28 /usr/lib/gcc/arm-none-eabi/13.2.0/../../../../arm-none-eabi/lib/thumb/v7e-m+fp/hard/libc_nano.a(libc_a-fflush.o)
                0x20004f30                fflush
 .text._sbrk_r  0x20004f58       0x20 /usr/lib/gcc/arm-none-eabi/13.2.0/../../../../arm-none-eabi/lib/thumb/v7e-m+fp/hard/libc_nano.a(libc_a-sbrkr.o)
                0x20004f58                _sbrk_r
 .text.memcpy   0x20004f78       0x1c /usr/lib/gcc/arm-none-eabi/13.2.0/../../../../arm-none-eabi/lib/thumb/v7e-m+fp/hard/libc_nano.a(libc_a-memcpy-stub.o)
                0x20004f78                memcpy
 .text._close   0x20004f94       0x10 /usr/lib/gcc/arm-none-eabi/13.2.0/../../../../arm-none-eabi/lib/thumb/v7e-m+fp/hard/libnosys.a(close.o)
                0x20004f94                _close
 .text._lseek   0x20004fa4       0x10 /usr/lib/gcc/arm-none-eabi/13.2.0/../../../../arm-none-eabi/lib/thumb/v7e-m+fp/hard/libnosys.a(lseek.o)
                0x20004fa4                _lseek
 .text._read    0x20004fb4       0x10 /usr/lib/gcc/arm-none-eabi/13.2.0/../../../../arm-none-eabi/lib/thumb/v7e-m+fp/hard/libnosys.a(read.o)
                0x20004fb4                _read
 .text._sbrk    0x20004fc4       0x1c /usr/lib/gcc/arm-none-eabi/13.2.0/../../../../arm-none-eabi/lib/thumb/v7e-m+fp/hard/libnosys.a(sbrk.o)
                0x20004fc4                _sbrk
 .text._write   0x20004fe0       0x10 /usr/lib/gcc/arm-none-eabi/13.2.0/../../../../arm-none-eabi/lib/thumb/v7e-m+fp/hard/libnosys.a(write.o)
                0x20004fe0                _write
 .text._exit    0x20004ff0        0x4 /usr/lib/gcc/arm-none-eabi/13.2.0/../../../../arm-none-eabi/lib/thumb/v7e-m+fp/hard/libnosys.a(_exit.o)
                0x20004ff0                _exit
 .text.__udivmoddi4
                0x20004ff4      0x2a0 /usr/lib/gcc/arm-none-eabi/13.2.0/thumb/v7e-m+fp/hard/libgcc.a(_udivmoddi4.o)
                0x20004ff4                __udivmoddi4
 *(.rodata)
 *fill*         0x20005294        0x4 
 .rodata        0x20005298       0x64 /tmp/ccMZqXQe.ltrans0.ltrans.o
 *(.rodata*)
 .rodata.all_implied_fbits
                0x200052fc       0x24 /usr/lib/gcc/arm-none-eabi/13.2.0/thumb/v7e-m+fp/hard/crtbegin.o
 .rodata.str1.4
                0x20005320       0x8b /tmp/ccMZqXQe.ltrans0.ltrans.o
 .rodata.all_implied_fbits
                0x200053ab       0x24 /usr/lib/gcc/arm-none-eabi/13.2.0/thumb/v7e-m+fp/hard/crtend.o
 *(.glue_7)
 .glue_7        0x200053cf        0x0 linker stubs
 *(.glue_7t)
 .glue_7t       0x200053cf        0x0 linker stubs
                0x200053d0                        . = ALIGN (0x4)
 *fill*         0x200053cf        0x1 

.vfp11_veneer   0x200053d0        0x0
 .vfp11_veneer  0x200053d0        0x0 linker stubs

.v4_bx          0x200053d0        0x0
 .v4_bx         0x200053d0        0x0 linker stubs

.init           0x200053d0        0xc
 .init          0x200053d0        0x4 /usr/lib/gcc/arm-none-eabi/13.2.0/thumb/v7e-m+fp/hard/crti.o
                0x200053d0                _init
 .init          0x200053d4        0x8 /usr/lib/gcc/arm-none-eabi/13.2.0/thumb/v7e-m+fp/hard/crtn.o

.fini           0x200053dc        0xc
 .fini          0x200053dc        0x4 /usr/lib/gcc/arm-none-eabi/13.2.0/thumb/v7e-m+fp/hard/crti.o
                0x200053dc                _fini
 .fini          0x200053e0        0x8 /usr/lib/gcc/arm-none-eabi/13.2.0/thumb/v7e-m+fp/hard/crtn.o

.iplt           0x200053e8        0x0
 .iplt          0x200053e8        0x0 /usr/lib/gcc/arm-none-eabi/13.2.0/thumb/v7e-m+fp/hard/crtbegin.o

.eh_frame       0x200053e8        0x4
 .eh_frame      0x200053e8        0x0 /usr/lib/gcc/arm-none-eabi/13.2.0/thumb/v7e-m+fp/hard/crtbegin.o
 .eh_frame      0x200053e8        0x4 /usr/lib/gcc/arm-none-eabi/13.2.0/thumb/v7e-m+fp/hard/crtend.o

.ARM.extab      0x200053ec        0x0
 .ARM.extab     0x200053ec        0x0 /usr/lib/gcc/arm-none-eabi/13.2.0/../../../../arm-none-eabi/lib/thumb/v7e-m+fp/hard/crt0.o

.ARM.exidx      0x200053ec        0x8
 .ARM.exidx     0x200053ec        0x8 /usr/lib/gcc/arm-none-eabi/13.2.0/../../../../arm-none-eabi/lib/thumb/v7e-m+fp/hard/crt0.o
                                 0x10 (size before relaxing)

.isr_vector     0x200053f4      0x188
 .isr_vector    0x200053f4      0x188 CMakeFiles/MD407-MATRIX.elf.dir/vectors.s.obj
                0x200053f4                g_pfnVectors

.ARM.extab.text.__udivmoddi4
                0x2000557c        0x0
 .ARM.extab.text.__udivmoddi4
                0x2000557c        0x0 /usr/lib/gcc/arm-none-eabi/13.2.0/thumb/v7e-m+fp/hard/libgcc.a(_udivmoddi4.o)

.ARM.exidx.text.__udivmoddi4
                0x2000557c        0x0
 .ARM.exidx.text.__udivmoddi4
                0x2000557c        0x0 /usr/lib/gcc/arm-none-eabi/13.2.0/thumb/v7e-m+fp/hard/libgcc.a(_udivmoddi4.o)
                                  0x8 (size before relaxing)

.rel.dyn        0x2000557c        0x0
 .rel.iplt      0x2000557c        0x0 /usr/lib/gcc/arm-none-eabi/13.2.0/thumb/v7e-m+fp/hard/crtbegin.o

.data           0x2000557c       0x6c
                0x2000557c                        . = ALIGN (0x4)
                0x2000557c                        _sdata = .
                0x2000557c                        _sidata = .
 *(.data)
 .data          0x2000557c        0x0 /usr/lib/gcc/arm-none-eabi/13.2.0/thumb/v7e-m+fp/hard/crti.o
 .data          0x2000557c        0x0 /usr/lib/gcc/arm-none-eabi/13.2.0/thumb/v7e-m+fp/hard/crtbegin.o
 .data          0x2000557c        0x0 /usr/lib/gcc/arm-none-eabi/13.2.0/../../../../arm-none-eabi/lib/thumb/v7e-m+fp/hard/crt0.o
 .data          0x2000557c        0x0 CMakeFiles/MD407-MATRIX.elf.dir/vectors.s.obj
 .data          0x2000557c        0x4 /tmp/ccMZqXQe.ltrans0.ltrans.o
 .data          0x20005580        0x0 /usr/lib/gcc/arm-none-eabi/13.2.0/../../../../arm-none-eabi/lib/thumb/v7e-m+fp/hard/libc_nano.a(libc_a-atexit.o)
 .data          0x20005580        0x0 /usr/lib/gcc/arm-none-eabi/13.2.0/../../../../arm-none-eabi/lib/thumb/v7e-m+fp/hard/libc_nano.a(libc_a-exit.o)
 .data          0x20005580        0x0 /usr/lib/gcc/arm-none-eabi/13.2.0/../../../../arm-none-eabi/lib/thumb/v7e-m+fp/hard/libc_nano.a(libc_a-findfp.o)
 .data          0x20005580        0x0 /usr/lib/gcc/arm-none-eabi/13.2.0/../../../../arm-none-eabi/lib/thumb/v7e-m+fp/hard/libc_nano.a(libc_a-fwalk.o)
 .data          0x20005580        0x0 /usr/lib/gcc/arm-none-eabi/13.2.0/../../../../arm-none-eabi/lib/thumb/v7e-m+fp/hard/libc_nano.a(libc_a-stdio.o)
 .data          0x20005580        0x0 /usr/lib/gcc/arm-none-eabi/13.2.0/../../../../arm-none-eabi/lib/thumb/v7e-m+fp/hard/libc_nano.a(libc_a-memset.o)
 .data          0x20005580        0x0 /usr/lib/gcc/arm-none-eabi/13.2.0/../../../../arm-none-eabi/lib/thumb/v7e-m+fp/hard/libc_nano.a(libc_a-closer.o)
 .data          0x20005580        0x0 /usr/lib/gcc/arm-none-eabi/13.2.0/../../../../arm-none-eabi/lib/thumb/v7e-m+fp/hard/libc_nano.a(libc_a-reent.o)
 .data          0x20005580        0x0 /usr/lib/gcc/arm-none-eabi/13.2.0/../../../../arm-none-eabi/lib/thumb/v7e-m+fp/hard/libc_nano.a(libc_a-impure.o)
 .data          0x20005580        0x0 /usr/lib/gcc/arm-none-eabi/13.2.0/../../../../arm-none-eabi/lib/thumb/v7e-m+fp/hard/libc_nano.a(libc_a-lseekr.o)
 .data          0x20005580        0x0 /usr/lib/gcc/arm-none-eabi/13.2.0/../../../../arm-none-eabi/lib/thumb/v7e-m+fp/hard/libc_nano.a(libc_a-readr.o)
 .data          0x20005580        0x0 /usr/lib/gcc/arm-none-eabi/13.2.0/../../../../arm-none-eabi/lib/thumb/v7e-m+fp/hard/libc_nano.a(libc_a-writer.o)
 .data          0x20005580        0x0 /usr/lib/gcc/arm-none-eabi/13.2.0/../../../../arm-none-eabi/lib/thumb/v7e-m+fp/hard/libc_nano.a(libc_a-init.o)
 .data          0x20005580        0x0 /usr/lib/gcc/arm-none-eabi/13.2.0/../../../../arm-none-eabi/lib/thumb/v7e-m+fp/hard/libc_nano.a(libc_a-fini.o)
 .data          0x20005580        0x0 /usr/lib/gcc/arm-none-eabi/13.2.0/../../../../arm-none-eabi/lib/thumb/v7e-m+fp/hard/libc_nano.a(libc_a-lock.o)
 .data          0x20005580        0x0 /usr/lib/gcc/arm-none-eabi/13.2.0/../../../../arm-none-eabi/lib/thumb/v7e-m+fp/hard/libc_nano.a(libc_a-__atexit.o)
 .data          0x20005580        0x0 /usr/lib/gcc/arm-none-eabi/13.2.0/../../../../arm-none-eabi/lib/thumb/v7e-m+fp/hard/libc_nano.a(libc_a-__call_atexit.o)
 .data          0x20005580        0x0 /usr/lib/gcc/arm-none-eabi/13.2.0/../../../../arm-none-eabi/lib/thumb/v7e-m+fp/hard/libc_nano.a(libc_a-freer.o)
 .data          0x20005580        0x0 /usr/lib/gcc/arm-none-eabi/13.2.0/../../../../arm-none-eabi/lib/thumb/v7e-m+fp/hard/libc_nano.a(libc_a-mallocr.o)
 .data          0x20005580        0x0 /usr/lib/gcc/arm-none-eabi/13.2.0/../../../../arm-none-eabi/lib/thumb/v7e-m+fp/hard/libc_nano.a(libc_a-mlock.o)
 .data          0x20005580        0x0 /usr/lib/gcc/arm-none-eabi/13.2.0/../../../../arm-none-eabi/lib/thumb/v7e-m+fp/hard/libc_nano.a(libc_a-fflush.o)
 .data          0x20005580        0x0 /usr/lib/gcc/arm-none-eabi/13.2.0/../../../../arm-none-eabi/lib/thumb/v7e-m+fp/hard/libc_nano.a(libc_a-sbrkr.o)
 .data          0x20005580        0x0 /usr/lib/gcc/arm-none-eabi/13.2.0/../../../../arm-none-eabi/lib/thumb/v7e-m+fp/hard/libc_nano.a(libc_a-memcpy-stub.o)
 .data          0x20005580        0x0 /usr/lib/gcc/arm-none-eabi/13.2.0/../../../../arm-none-eabi/lib/thumb/v7e-m+fp/hard/libnosys.a(close.o)
 .data          0x20005580        0x0 /usr/lib/gcc/arm-none-eabi/13.2.0/../../../../arm-none-eabi/lib/thumb/v7e-m+fp/hard/libnosys.a(lseek.o)
 .data          0x20005580        0x0 /usr/lib/gcc/arm-none-eabi/13.2.0/../../../../arm-none-eabi/lib/thumb/v7e-m+fp/hard/libnosys.a(read.o)
 .data          0x20005580        0x0 /usr/lib/gcc/arm-none-eabi/13.2.0/../../../../arm-none-eabi/lib/thumb/v7e-m+fp/hard/libnosys.a(sbrk.o)
 .data          0x20005580        0x0 /usr/lib/gcc/arm-none-eabi/13.2.0/../../../../arm-none-eabi/lib/thumb/v7e-m+fp/hard/libnosys.a(write.o)
 .data          0x20005580        0x0 /usr/lib/gcc/arm-none-eabi/13.2.0/../../../../arm-none-eabi/lib/thumb/v7e-m+fp/hard/libnosys.a(_exit.o)
 .data          0x20005580        0x0 /usr/lib/gcc/arm-none-eabi/13.2.0/thumb/v7e-m+fp/hard/libgcc.a(_arm_muldf3.o)
 .data          0x20005580        0x0 /usr/lib/gcc/arm-none-eabi/13.2.0/thumb/v7e-m+fp/hard/libgcc.a(_arm_addsubdf3.o)
 .data          0x20005580        0x0 /usr/lib/gcc/arm-none-eabi/13.2.0/thumb/v7e-m+fp/hard/libgcc.a(_arm_muldivdf3.o)
 .data          0x20005580        0x0 /usr/lib/gcc/arm-none-eabi/13.2.0/thumb/v7e-m+fp/hard/libgcc.a(_arm_cmpdf2.o)
 .data          0x20005580        0x0 /usr/lib/gcc/arm-none-eabi/13.2.0/thumb/v7e-m+fp/hard/libgcc.a(_arm_fixdfsi.o)
 .data          0x20005580        0x0 /usr/lib/gcc/arm-none-eabi/13.2.0/thumb/v7e-m+fp/hard/libgcc.a(_arm_fixunsdfsi.o)
 .data          0x20005580        0x0 /usr/lib/gcc/arm-none-eabi/13.2.0/thumb/v7e-m+fp/hard/libgcc.a(_aeabi_uldivmod.o)
 .data          0x20005580        0x0 /usr/lib/gcc/arm-none-eabi/13.2.0/thumb/v7e-m+fp/hard/libgcc.a(_udivmoddi4.o)
 .data          0x20005580        0x0 /usr/lib/gcc/arm-none-eabi/13.2.0/thumb/v7e-m+fp/hard/libgcc.a(_dvmd_tls.o)
 .data          0x20005580        0x0 /usr/lib/gcc/arm-none-eabi/13.2.0/thumb/v7e-m+fp/hard/crtend.o
 .data          0x20005580        0x0 /usr/lib/gcc/arm-none-eabi/13.2.0/thumb/v7e-m+fp/hard/crtn.o
 *(.data.*)
 .data.__dso_handle
                0x20005580        0x4 /usr/lib/gcc/arm-none-eabi/13.2.0/thumb/v7e-m+fp/hard/crtbegin.o
                0x20005580                __dso_handle
 .data.__sglue  0x20005584        0xc /usr/lib/gcc/arm-none-eabi/13.2.0/../../../../arm-none-eabi/lib/thumb/v7e-m+fp/hard/libc_nano.a(libc_a-findfp.o)
                0x20005584                __sglue
 .data._impure_ptr
                0x20005590        0x4 /usr/lib/gcc/arm-none-eabi/13.2.0/../../../../arm-none-eabi/lib/thumb/v7e-m+fp/hard/libc_nano.a(libc_a-impure.o)
                0x20005590                _impure_ptr
 .data._impure_data
                0x20005594       0x4c /usr/lib/gcc/arm-none-eabi/13.2.0/../../../../arm-none-eabi/lib/thumb/v7e-m+fp/hard/libc_nano.a(libc_a-impure.o)
                0x20005594                _impure_data
 .data.__atexit_dummy
                0x200055e0        0x4 /usr/lib/gcc/arm-none-eabi/13.2.0/../../../../arm-none-eabi/lib/thumb/v7e-m+fp/hard/libc_nano.a(libc_a-__atexit.o)
                0x200055e0                __atexit_dummy
 .data.__atexit_recursive_mutex
                0x200055e4        0x4 /usr/lib/gcc/arm-none-eabi/13.2.0/../../../../arm-none-eabi/lib/thumb/v7e-m+fp/hard/libc_nano.a(libc_a-__call_atexit.o)
                0x200055e4                __atexit_recursive_mutex
                0x200055e8                        . = ALIGN (0x4)
                0x200055e8                        _edata = .

.init_array     0x200055e8        0x4
 .init_array    0x200055e8        0x4 /usr/lib/gcc/arm-none-eabi/13.2.0/thumb/v7e-m+fp/hard/crtbegin.o

.fini_array     0x200055ec        0x4
 .fini_array    0x200055ec        0x4 /usr/lib/gcc/arm-none-eabi/13.2.0/thumb/v7e-m+fp/hard/crtbegin.o

.igot.plt       0x200055f0        0x0
 .igot.plt      0x200055f0        0x0 /usr/lib/gcc/arm-none-eabi/13.2.0/thumb/v7e-m+fp/hard/crtbegin.o

.bss            0x200055f0    0x169bc
                0x200055f0                        . = ALIGN (0x4)
                0x200055f0                        _sbss = .
                0x200055f0                        __bss_start__ = .
 *(.bss)
 .bss           0x200055f0        0x0 /usr/lib/gcc/arm-none-eabi/13.2.0/thumb/v7e-m+fp/hard/crti.o
 .bss           0x200055f0        0x0 /usr/lib/gcc/arm-none-eabi/13.2.0/thumb/v7e-m+fp/hard/crtbegin.o
 .bss           0x200055f0        0x0 /usr/lib/gcc/arm-none-eabi/13.2.0/../../../../arm-none-eabi/lib/thumb/v7e-m+fp/hard/crt0.o
 .bss           0x200055f0        0x0 CMakeFiles/MD407-MATRIX.elf.dir/vectors.s.obj
 .bss           0x200055f0    0x167bc /tmp/ccMZqXQe.ltrans0.ltrans.o
                0x20005ab4                pxCurrentTCB
 .bss           0x2001bdac        0x0 /usr/lib/gcc/arm-none-eabi/13.2.0/../../../../arm-none-eabi/lib/thumb/v7e-m+fp/hard/libc_nano.a(libc_a-atexit.o)
 .bss           0x2001bdac        0x0 /usr/lib/gcc/arm-none-eabi/13.2.0/../../../../arm-none-eabi/lib/thumb/v7e-m+fp/hard/libc_nano.a(libc_a-exit.o)
 .bss           0x2001bdac        0x0 /usr/lib/gcc/arm-none-eabi/13.2.0/../../../../arm-none-eabi/lib/thumb/v7e-m+fp/hard/libc_nano.a(libc_a-findfp.o)
 .bss           0x2001bdac        0x0 /usr/lib/gcc/arm-none-eabi/13.2.0/../../../../arm-none-eabi/lib/thumb/v7e-m+fp/hard/libc_nano.a(libc_a-fwalk.o)
 .bss           0x2001bdac        0x0 /usr/lib/gcc/arm-none-eabi/13.2.0/../../../../arm-none-eabi/lib/thumb/v7e-m+fp/hard/libc_nano.a(libc_a-stdio.o)
 .bss           0x2001bdac        0x0 /usr/lib/gcc/arm-none-eabi/13.2.0/../../../../arm-none-eabi/lib/thumb/v7e-m+fp/hard/libc_nano.a(libc_a-memset.o)
 .bss           0x2001bdac        0x0 /usr/lib/gcc/arm-none-eabi/13.2.0/../../../../arm-none-eabi/lib/thumb/v7e-m+fp/hard/libc_nano.a(libc_a-closer.o)
 .bss           0x2001bdac        0x0 /usr/lib/gcc/arm-none-eabi/13.2.0/../../../../arm-none-eabi/lib/thumb/v7e-m+fp/hard/libc_nano.a(libc_a-reent.o)
 .bss           0x2001bdac        0x0 /usr/lib/gcc/arm-none-eabi/13.2.0/../../../../arm-none-eabi/lib/thumb/v7e-m+fp/hard/libc_nano.a(libc_a-impure.o)
 .bss           0x2001bdac        0x0 /usr/lib/gcc/arm-none-eabi/13.2.0/../../../../arm-none-eabi/lib/thumb/v7e-m+fp/hard/libc_nano.a(libc_a-lseekr.o)
 .bss           0x2001bdac        0x0 /usr/lib/gcc/arm-none-eabi/13.2.0/../../../../arm-none-eabi/lib/thumb/v7e-m+fp/hard/libc_nano.a(libc_a-readr.o)
 .bss           0x2001bdac        0x0 /usr/lib/gcc/arm-none-eabi/13.2.0/../../../../arm-none-eabi/lib/thumb/v7e-m+fp/hard/libc_nano.a(libc_a-writer.o)
 .bss           0x2001bdac        0x0 /usr/lib/gcc/arm-none-eabi/13.2.0/../../../../arm-none-eabi/lib/thumb/v7e-m+fp/hard/libc_nano.a(libc_a-init.o)
 .bss           0x2001bdac        0x0 /usr/lib/gcc/arm-none-eabi/13.2.0/../../../../arm-none-eabi/lib/thumb/v7e-m+fp/hard/libc_nano.a(libc_a-fini.o)
 .bss           0x2001bdac        0x0 /usr/lib/gcc/arm-none-eabi/13.2.0/../../../../arm-none-eabi/lib/thumb/v7e-m+fp/hard/libc_nano.a(libc_a-lock.o)
 .bss           0x2001bdac        0x0 /usr/lib/gcc/arm-none-eabi/13.2.0/../../../../arm-none-eabi/lib/thumb/v7e-m+fp/hard/libc_nano.a(libc_a-__atexit.o)
 .bss           0x2001bdac        0x0 /usr/lib/gcc/arm-none-eabi/13.2.0/../../../../arm-none-eabi/lib/thumb/v7e-m+fp/hard/libc_nano.a(libc_a-__call_atexit.o)
 .bss           0x2001bdac        0x0 /usr/lib/gcc/arm-none-eabi/13.2.0/../../../../arm-none-eabi/lib/thumb/v7e-m+fp/hard/libc_nano.a(libc_a-freer.o)
 .bss           0x2001bdac        0x0 /usr/lib/gcc/arm-none-eabi/13.2.0/../../../../arm-none-eabi/lib/thumb/v7e-m+fp/hard/libc_nano.a(libc_a-mallocr.o)
 .bss           0x2001bdac        0x0 /usr/lib/gcc/arm-none-eabi/13.2.0/../../../../arm-none-eabi/lib/thumb/v7e-m+fp/hard/libc_nano.a(libc_a-mlock.o)
 .bss           0x2001bdac        0x0 /usr/lib/gcc/arm-none-eabi/13.2.0/../../../../arm-none-eabi/lib/thumb/v7e-m+fp/hard/libc_nano.a(libc_a-fflush.o)
 .bss           0x2001bdac        0x0 /usr/lib/gcc/arm-none-eabi/13.2.0/../../../../arm-none-eabi/lib/thumb/v7e-m+fp/hard/libc_nano.a(libc_a-sbrkr.o)
 .bss           0x2001bdac        0x0 /usr/lib/gcc/arm-none-eabi/13.2.0/../../../../arm-none-eabi/lib/thumb/v7e-m+fp/hard/libc_nano.a(libc_a-memcpy-stub.o)
 .bss           0x2001bdac        0x0 /usr/lib/gcc/arm-none-eabi/13.2.0/../../../../arm-none-eabi/lib/thumb/v7e-m+fp/hard/libnosys.a(close.o)
 .bss           0x2001bdac        0x0 /usr/lib/gcc/arm-none-eabi/13.2.0/../../../../arm-none-eabi/lib/thumb/v7e-m+fp/hard/libnosys.a(lseek.o)
 .bss           0x2001bdac        0x0 /usr/lib/gcc/arm-none-eabi/13.2.0/../../../../arm-none-eabi/lib/thumb/v7e-m+fp/hard/libnosys.a(read.o)
 .bss           0x2001bdac        0x0 /usr/lib/gcc/arm-none-eabi/13.2.0/../../../../arm-none-eabi/lib/thumb/v7e-m+fp/hard/libnosys.a(sbrk.o)
 .bss           0x2001bdac        0x0 /usr/lib/gcc/arm-none-eabi/13.2.0/../../../../arm-none-eabi/lib/thumb/v7e-m+fp/hard/libnosys.a(write.o)
 .bss           0x2001bdac        0x0 /usr/lib/gcc/arm-none-eabi/13.2.0/../../../../arm-none-eabi/lib/thumb/v7e-m+fp/hard/libnosys.a(_exit.o)
 .bss           0x2001bdac        0x0 /usr/lib/gcc/arm-none-eabi/13.2.0/thumb/v7e-m+fp/hard/libgcc.a(_arm_muldf3.o)
 .bss           0x2001bdac        0x0 /usr/lib/gcc/arm-none-eabi/13.2.0/thumb/v7e-m+fp/hard/libgcc.a(_arm_addsubdf3.o)
 .bss           0x2001bdac        0x0 /usr/lib/gcc/arm-none-eabi/13.2.0/thumb/v7e-m+fp/hard/libgcc.a(_arm_muldivdf3.o)
 .bss           0x2001bdac        0x0 /usr/lib/gcc/arm-none-eabi/13.2.0/thumb/v7e-m+fp/hard/libgcc.a(_arm_cmpdf2.o)
 .bss           0x2001bdac        0x0 /usr/lib/gcc/arm-none-eabi/13.2.0/thumb/v7e-m+fp/hard/libgcc.a(_arm_fixdfsi.o)
 .bss           0x2001bdac        0x0 /usr/lib/gcc/arm-none-eabi/13.2.0/thumb/v7e-m+fp/hard/libgcc.a(_arm_fixunsdfsi.o)
 .bss           0x2001bdac        0x0 /usr/lib/gcc/arm-none-eabi/13.2.0/thumb/v7e-m+fp/hard/libgcc.a(_aeabi_uldivmod.o)
 .bss           0x2001bdac        0x0 /usr/lib/gcc/arm-none-eabi/13.2.0/thumb/v7e-m+fp/hard/libgcc.a(_udivmoddi4.o)
 .bss           0x2001bdac        0x0 /usr/lib/gcc/arm-none-eabi/13.2.0/thumb/v7e-m+fp/hard/libgcc.a(_dvmd_tls.o)
 .bss           0x2001bdac        0x0 /usr/lib/gcc/arm-none-eabi/13.2.0/thumb/v7e-m+fp/hard/crtend.o
 .bss           0x2001bdac        0x0 /usr/lib/gcc/arm-none-eabi/13.2.0/thumb/v7e-m+fp/hard/crtn.o
 *(.bss.*)
 .bss.completed.1
                0x2001bdac        0x1 /usr/lib/gcc/arm-none-eabi/13.2.0/thumb/v7e-m+fp/hard/crtbegin.o
 *fill*         0x2001bdad        0x3 
 .bss.object.0  0x2001bdb0       0x18 /usr/lib/gcc/arm-none-eabi/13.2.0/thumb/v7e-m+fp/hard/crtbegin.o
 .bss.__sf      0x2001bdc8      0x138 /usr/lib/gcc/arm-none-eabi/13.2.0/../../../../arm-none-eabi/lib/thumb/v7e-m+fp/hard/libc_nano.a(libc_a-findfp.o)
                0x2001bdc8                __sf
 .bss.__stdio_exit_handler
                0x2001bf00        0x4 /usr/lib/gcc/arm-none-eabi/13.2.0/../../../../arm-none-eabi/lib/thumb/v7e-m+fp/hard/libc_nano.a(libc_a-findfp.o)
                0x2001bf00                __stdio_exit_handler
 .bss.errno     0x2001bf04        0x4 /usr/lib/gcc/arm-none-eabi/13.2.0/../../../../arm-none-eabi/lib/thumb/v7e-m+fp/hard/libc_nano.a(libc_a-reent.o)
                0x2001bf04                errno
 .bss.__lock___arc4random_mutex
                0x2001bf08        0x1 /usr/lib/gcc/arm-none-eabi/13.2.0/../../../../arm-none-eabi/lib/thumb/v7e-m+fp/hard/libc_nano.a(libc_a-lock.o)
                0x2001bf08                __lock___arc4random_mutex
 .bss.__lock___dd_hash_mutex
                0x2001bf09        0x1 /usr/lib/gcc/arm-none-eabi/13.2.0/../../../../arm-none-eabi/lib/thumb/v7e-m+fp/hard/libc_nano.a(libc_a-lock.o)
                0x2001bf09                __lock___dd_hash_mutex
 .bss.__lock___tz_mutex
                0x2001bf0a        0x1 /usr/lib/gcc/arm-none-eabi/13.2.0/../../../../arm-none-eabi/lib/thumb/v7e-m+fp/hard/libc_nano.a(libc_a-lock.o)
                0x2001bf0a                __lock___tz_mutex
 .bss.__lock___env_recursive_mutex
                0x2001bf0b        0x1 /usr/lib/gcc/arm-none-eabi/13.2.0/../../../../arm-none-eabi/lib/thumb/v7e-m+fp/hard/libc_nano.a(libc_a-lock.o)
                0x2001bf0b                __lock___env_recursive_mutex
 .bss.__lock___malloc_recursive_mutex
                0x2001bf0c        0x1 /usr/lib/gcc/arm-none-eabi/13.2.0/../../../../arm-none-eabi/lib/thumb/v7e-m+fp/hard/libc_nano.a(libc_a-lock.o)
                0x2001bf0c                __lock___malloc_recursive_mutex
 .bss.__lock___at_quick_exit_mutex
                0x2001bf0d        0x1 /usr/lib/gcc/arm-none-eabi/13.2.0/../../../../arm-none-eabi/lib/thumb/v7e-m+fp/hard/libc_nano.a(libc_a-lock.o)
                0x2001bf0d                __lock___at_quick_exit_mutex
 .bss.__lock___atexit_recursive_mutex
                0x2001bf0e        0x1 /usr/lib/gcc/arm-none-eabi/13.2.0/../../../../arm-none-eabi/lib/thumb/v7e-m+fp/hard/libc_nano.a(libc_a-lock.o)
                0x2001bf0e                __lock___atexit_recursive_mutex
 .bss.__lock___sfp_recursive_mutex
                0x2001bf0f        0x1 /usr/lib/gcc/arm-none-eabi/13.2.0/../../../../arm-none-eabi/lib/thumb/v7e-m+fp/hard/libc_nano.a(libc_a-lock.o)
                0x2001bf0f                __lock___sfp_recursive_mutex
 .bss.__atexit0
                0x2001bf10       0x8c /usr/lib/gcc/arm-none-eabi/13.2.0/../../../../arm-none-eabi/lib/thumb/v7e-m+fp/hard/libc_nano.a(libc_a-__atexit.o)
                0x2001bf10                __atexit0
 .bss.__atexit  0x2001bf9c        0x4 /usr/lib/gcc/arm-none-eabi/13.2.0/../../../../arm-none-eabi/lib/thumb/v7e-m+fp/hard/libc_nano.a(libc_a-__call_atexit.o)
                0x2001bf9c                __atexit
 .bss.__malloc_sbrk_start
                0x2001bfa0        0x4 /usr/lib/gcc/arm-none-eabi/13.2.0/../../../../arm-none-eabi/lib/thumb/v7e-m+fp/hard/libc_nano.a(libc_a-mallocr.o)
                0x2001bfa0                __malloc_sbrk_start
 .bss.__malloc_free_list
                0x2001bfa4        0x4 /usr/lib/gcc/arm-none-eabi/13.2.0/../../../../arm-none-eabi/lib/thumb/v7e-m+fp/hard/libc_nano.a(libc_a-mallocr.o)
                0x2001bfa4                __malloc_free_list
 .bss.heap_end.0
                0x2001bfa8        0x4 /usr/lib/gcc/arm-none-eabi/13.2.0/../../../../arm-none-eabi/lib/thumb/v7e-m+fp/hard/libnosys.a(sbrk.o)
 *(COMMON)
                0x2001bfac                        . = ALIGN (0x4)
                0x2001bfac                        _ebss = .
                0x2001bfac                        __bss_end__ = .
                0x2001bfac                        PROVIDE (end = _ebss)
                [!provide]                        PROVIDE (_end = _ebss)
                0x2001bfac                        _end = .
                0x2001bfac                        end = .
                0x2001bffc                        PROVIDE (_estack = ((ORIGIN (RAM) + LENGTH (RAM)) - 0x4))
OUTPUT(/home/simon/MT-C/MD407-melody/Debug/MD407-MATRIX.elf elf32-littlearm)
LOAD linker stubs

.ARM.attributes
                0x00000000       0x30
 .ARM.attributes
                0x00000000       0x22 /usr/lib/gcc/arm-none-eabi/13.2.0/thumb/v7e-m+fp/hard/crti.o
 .ARM.attributes
                0x00000022       0x34 /usr/lib/gcc/arm-none-eabi/13.2.0/thumb/v7e-m+fp/hard/crtbegin.o
 .ARM.attributes
                0x00000056       0x20 /usr/lib/gcc/arm-none-eabi/13.2.0/../../../../arm-none-eabi/lib/thumb/v7e-m+fp/hard/crt0.o
 .ARM.attributes
                0x00000076       0x21 CMakeFiles/MD407-MATRIX.elf.dir/vectors.s.obj
 .ARM.attributes
                0x00000097       0x32 /tmp/ccMZqXQe.ltrans0.ltrans.o
 .ARM.attributes
                0x000000c9       0x34 /usr/lib/gcc/arm-none-eabi/13.2.0/../../../../arm-none-eabi/lib/thumb/v7e-m+fp/hard/libc_nano.a(libc_a-atexit.o)
 .ARM.attributes
                0x000000fd       0x34 /usr/lib/gcc/arm-none-eabi/13.2.0/../../../../arm-none-eabi/lib/thumb/v7e-m+fp/hard/libc_nano.a(libc_a-exit.o)
 .ARM.attributes
                0x00000131       0x34 /usr/lib/gcc/arm-none-eabi/13.2.0/../../../../arm-none-eabi/lib/thumb/v7e-m+fp/hard/libc_nano.a(libc_a-findfp.o)
 .ARM.attributes
                0x00000165       0x34 /usr/lib/gcc/arm-none-eabi/13.2.0/../../../../arm-none-eabi/lib/thumb/v7e-m+fp/hard/libc_nano.a(libc_a-fwalk.o)
 .ARM.attributes
                0x00000199       0x34 /usr/lib/gcc/arm-none-eabi/13.2.0/../../../../arm-none-eabi/lib/thumb/v7e-m+fp/hard/libc_nano.a(libc_a-stdio.o)
 .ARM.attributes
                0x000001cd       0x34 /usr/lib/gcc/arm-none-eabi/13.2.0/../../../../arm-none-eabi/lib/thumb/v7e-m+fp/hard/libc_nano.a(libc_a-memset.o)
 .ARM.attributes
                0x00000201       0x34 /usr/lib/gcc/arm-none-eabi/13.2.0/../../../../arm-none-eabi/lib/thumb/v7e-m+fp/hard/libc_nano.a(libc_a-closer.o)
 .ARM.attributes
                0x00000235       0x34 /usr/lib/gcc/arm-none-eabi/13.2.0/../../../../arm-none-eabi/lib/thumb/v7e-m+fp/hard/libc_nano.a(libc_a-reent.o)
 .ARM.attributes
                0x00000269       0x34 /usr/lib/gcc/arm-none-eabi/13.2.0/../../../../arm-none-eabi/lib/thumb/v7e-m+fp/hard/libc_nano.a(libc_a-impure.o)
 .ARM.attributes
                0x0000029d       0x34 /usr/lib/gcc/arm-none-eabi/13.2.0/../../../../arm-none-eabi/lib/thumb/v7e-m+fp/hard/libc_nano.a(libc_a-lseekr.o)
 .ARM.attributes
                0x000002d1       0x34 /usr/lib/gcc/arm-none-eabi/13.2.0/../../../../arm-none-eabi/lib/thumb/v7e-m+fp/hard/libc_nano.a(libc_a-readr.o)
 .ARM.attributes
                0x00000305       0x34 /usr/lib/gcc/arm-none-eabi/13.2.0/../../../../arm-none-eabi/lib/thumb/v7e-m+fp/hard/libc_nano.a(libc_a-writer.o)
 .ARM.attributes
                0x00000339       0x34 /usr/lib/gcc/arm-none-eabi/13.2.0/../../../../arm-none-eabi/lib/thumb/v7e-m+fp/hard/libc_nano.a(libc_a-init.o)
 .ARM.attributes
                0x0000036d       0x34 /usr/lib/gcc/arm-none-eabi/13.2.0/../../../../arm-none-eabi/lib/thumb/v7e-m+fp/hard/libc_nano.a(libc_a-fini.o)
 .ARM.attributes
                0x000003a1       0x34 /usr/lib/gcc/arm-none-eabi/13.2.0/../../../../arm-none-eabi/lib/thumb/v7e-m+fp/hard/libc_nano.a(libc_a-lock.o)
 .ARM.attributes
                0x000003d5       0x34 /usr/lib/gcc/arm-none-eabi/13.2.0/../../../../arm-none-eabi/lib/thumb/v7e-m+fp/hard/libc_nano.a(libc_a-__atexit.o)
 .ARM.attributes
                0x00000409       0x34 /usr/lib/gcc/arm-none-eabi/13.2.0/../../../../arm-none-eabi/lib/thumb/v7e-m+fp/hard/libc_nano.a(libc_a-__call_atexit.o)
 .ARM.attributes
                0x0000043d       0x34 /usr/lib/gcc/arm-none-eabi/13.2.0/../../../../arm-none-eabi/lib/thumb/v7e-m+fp/hard/libc_nano.a(libc_a-freer.o)
 .ARM.attributes
                0x00000471       0x34 /usr/lib/gcc/arm-none-eabi/13.2.0/../../../../arm-none-eabi/lib/thumb/v7e-m+fp/hard/libc_nano.a(libc_a-mallocr.o)
 .ARM.attributes
                0x000004a5       0x34 /usr/lib/gcc/arm-none-eabi/13.2.0/../../../../arm-none-eabi/lib/thumb/v7e-m+fp/hard/libc_nano.a(libc_a-mlock.o)
 .ARM.attributes
                0x000004d9       0x34 /usr/lib/gcc/arm-none-eabi/13.2.0/../../../../arm-none-eabi/lib/thumb/v7e-m+fp/hard/libc_nano.a(libc_a-fflush.o)
 .ARM.attributes
                0x0000050d       0x34 /usr/lib/gcc/arm-none-eabi/13.2.0/../../../../arm-none-eabi/lib/thumb/v7e-m+fp/hard/libc_nano.a(libc_a-sbrkr.o)
 .ARM.attributes
                0x00000541       0x34 /usr/lib/gcc/arm-none-eabi/13.2.0/../../../../arm-none-eabi/lib/thumb/v7e-m+fp/hard/libc_nano.a(libc_a-memcpy-stub.o)
 .ARM.attributes
                0x00000575       0x34 /usr/lib/gcc/arm-none-eabi/13.2.0/../../../../arm-none-eabi/lib/thumb/v7e-m+fp/hard/libnosys.a(close.o)
 .ARM.attributes
                0x000005a9       0x34 /usr/lib/gcc/arm-none-eabi/13.2.0/../../../../arm-none-eabi/lib/thumb/v7e-m+fp/hard/libnosys.a(lseek.o)
 .ARM.attributes
                0x000005dd       0x34 /usr/lib/gcc/arm-none-eabi/13.2.0/../../../../arm-none-eabi/lib/thumb/v7e-m+fp/hard/libnosys.a(read.o)
 .ARM.attributes
                0x00000611       0x34 /usr/lib/gcc/arm-none-eabi/13.2.0/../../../../arm-none-eabi/lib/thumb/v7e-m+fp/hard/libnosys.a(sbrk.o)
 .ARM.attributes
                0x00000645       0x34 /usr/lib/gcc/arm-none-eabi/13.2.0/../../../../arm-none-eabi/lib/thumb/v7e-m+fp/hard/libnosys.a(write.o)
 .ARM.attributes
                0x00000679       0x34 /usr/lib/gcc/arm-none-eabi/13.2.0/../../../../arm-none-eabi/lib/thumb/v7e-m+fp/hard/libnosys.a(_exit.o)
 .ARM.attributes
                0x000006ad       0x22 /usr/lib/gcc/arm-none-eabi/13.2.0/thumb/v7e-m+fp/hard/libgcc.a(_arm_muldf3.o)
 .ARM.attributes
                0x000006cf       0x22 /usr/lib/gcc/arm-none-eabi/13.2.0/thumb/v7e-m+fp/hard/libgcc.a(_arm_addsubdf3.o)
 .ARM.attributes
                0x000006f1       0x22 /usr/lib/gcc/arm-none-eabi/13.2.0/thumb/v7e-m+fp/hard/libgcc.a(_arm_muldivdf3.o)
 .ARM.attributes
                0x00000713       0x22 /usr/lib/gcc/arm-none-eabi/13.2.0/thumb/v7e-m+fp/hard/libgcc.a(_arm_cmpdf2.o)
 .ARM.attributes
                0x00000735       0x22 /usr/lib/gcc/arm-none-eabi/13.2.0/thumb/v7e-m+fp/hard/libgcc.a(_arm_fixdfsi.o)
 .ARM.attributes
                0x00000757       0x22 /usr/lib/gcc/arm-none-eabi/13.2.0/thumb/v7e-m+fp/hard/libgcc.a(_arm_fixunsdfsi.o)
 .ARM.attributes
                0x00000779       0x22 /usr/lib/gcc/arm-none-eabi/13.2.0/thumb/v7e-m+fp/hard/libgcc.a(_aeabi_uldivmod.o)
 .ARM.attributes
                0x0000079b       0x34 /usr/lib/gcc/arm-none-eabi/13.2.0/thumb/v7e-m+fp/hard/libgcc.a(_udivmoddi4.o)
 .ARM.attributes
                0x000007cf       0x22 /usr/lib/gcc/arm-none-eabi/13.2.0/thumb/v7e-m+fp/hard/libgcc.a(_dvmd_tls.o)
 .ARM.attributes
                0x000007f1       0x34 /usr/lib/gcc/arm-none-eabi/13.2.0/thumb/v7e-m+fp/hard/crtend.o
 .ARM.attributes
                0x00000825       0x22 /usr/lib/gcc/arm-none-eabi/13.2.0/thumb/v7e-m+fp/hard/crtn.o

.comment        0x00000000       0x1e
 .comment       0x00000000       0x1f /tmp/ccMZqXQe.ltrans0.ltrans.o
 .comment       0x00000000       0x1e /usr/lib/gcc/arm-none-eabi/13.2.0/../../../../arm-none-eabi/lib/thumb/v7e-m+fp/hard/libc_nano.a(libc_a-atexit.o)
                                 0x1f (size before relaxing)
 .comment       0x0000001e       0x1f /usr/lib/gcc/arm-none-eabi/13.2.0/../../../../arm-none-eabi/lib/thumb/v7e-m+fp/hard/libc_nano.a(libc_a-exit.o)
 .comment       0x0000001e       0x1f /usr/lib/gcc/arm-none-eabi/13.2.0/../../../../arm-none-eabi/lib/thumb/v7e-m+fp/hard/libc_nano.a(libc_a-findfp.o)
 .comment       0x0000001e       0x1f /usr/lib/gcc/arm-none-eabi/13.2.0/../../../../arm-none-eabi/lib/thumb/v7e-m+fp/hard/libc_nano.a(libc_a-fwalk.o)
 .comment       0x0000001e       0x1f /usr/lib/gcc/arm-none-eabi/13.2.0/../../../../arm-none-eabi/lib/thumb/v7e-m+fp/hard/libc_nano.a(libc_a-stdio.o)
 .comment       0x0000001e       0x1f /usr/lib/gcc/arm-none-eabi/13.2.0/../../../../arm-none-eabi/lib/thumb/v7e-m+fp/hard/libc_nano.a(libc_a-memset.o)
 .comment       0x0000001e       0x1f /usr/lib/gcc/arm-none-eabi/13.2.0/../../../../arm-none-eabi/lib/thumb/v7e-m+fp/hard/libc_nano.a(libc_a-closer.o)
 .comment       0x0000001e       0x1f /usr/lib/gcc/arm-none-eabi/13.2.0/../../../../arm-none-eabi/lib/thumb/v7e-m+fp/hard/libc_nano.a(libc_a-reent.o)
 .comment       0x0000001e       0x1f /usr/lib/gcc/arm-none-eabi/13.2.0/../../../../arm-none-eabi/lib/thumb/v7e-m+fp/hard/libc_nano.a(libc_a-impure.o)
 .comment       0x0000001e       0x1f /usr/lib/gcc/arm-none-eabi/13.2.0/../../../../arm-none-eabi/lib/thumb/v7e-m+fp/hard/libc_nano.a(libc_a-lseekr.o)
 .comment       0x0000001e       0x1f /usr/lib/gcc/arm-none-eabi/13.2.0/../../../../arm-none-eabi/lib/thumb/v7e-m+fp/hard/libc_nano.a(libc_a-readr.o)
 .comment       0x0000001e       0x1f /usr/lib/gcc/arm-none-eabi/13.2.0/../../../../arm-none-eabi/lib/thumb/v7e-m+fp/hard/libc_nano.a(libc_a-writer.o)
 .comment       0x0000001e       0x1f /usr/lib/gcc/arm-none-eabi/13.2.0/../../../../arm-none-eabi/lib/thumb/v7e-m+fp/hard/libc_nano.a(libc_a-init.o)
 .comment       0x0000001e       0x1f /usr/lib/gcc/arm-none-eabi/13.2.0/../../../../arm-none-eabi/lib/thumb/v7e-m+fp/hard/libc_nano.a(libc_a-fini.o)
 .comment       0x0000001e       0x1f /usr/lib/gcc/arm-none-eabi/13.2.0/../../../../arm-none-eabi/lib/thumb/v7e-m+fp/hard/libc_nano.a(libc_a-lock.o)
 .comment       0x0000001e       0x1f /usr/lib/gcc/arm-none-eabi/13.2.0/../../../../arm-none-eabi/lib/thumb/v7e-m+fp/hard/libc_nano.a(libc_a-__atexit.o)
 .comment       0x0000001e       0x1f /usr/lib/gcc/arm-none-eabi/13.2.0/../../../../arm-none-eabi/lib/thumb/v7e-m+fp/hard/libc_nano.a(libc_a-__call_atexit.o)
 .comment       0x0000001e       0x1f /usr/lib/gcc/arm-none-eabi/13.2.0/../../../../arm-none-eabi/lib/thumb/v7e-m+fp/hard/libc_nano.a(libc_a-freer.o)
 .comment       0x0000001e       0x1f /usr/lib/gcc/arm-none-eabi/13.2.0/../../../../arm-none-eabi/lib/thumb/v7e-m+fp/hard/libc_nano.a(libc_a-mallocr.o)
 .comment       0x0000001e       0x1f /usr/lib/gcc/arm-none-eabi/13.2.0/../../../../arm-none-eabi/lib/thumb/v7e-m+fp/hard/libc_nano.a(libc_a-mlock.o)
 .comment       0x0000001e       0x1f /usr/lib/gcc/arm-none-eabi/13.2.0/../../../../arm-none-eabi/lib/thumb/v7e-m+fp/hard/libc_nano.a(libc_a-fflush.o)
 .comment       0x0000001e       0x1f /usr/lib/gcc/arm-none-eabi/13.2.0/../../../../arm-none-eabi/lib/thumb/v7e-m+fp/hard/libc_nano.a(libc_a-sbrkr.o)
 .comment       0x0000001e       0x1f /usr/lib/gcc/arm-none-eabi/13.2.0/../../../../arm-none-eabi/lib/thumb/v7e-m+fp/hard/libc_nano.a(libc_a-memcpy-stub.o)
 .comment       0x0000001e       0x1f /usr/lib/gcc/arm-none-eabi/13.2.0/thumb/v7e-m+fp/hard/libgcc.a(_udivmoddi4.o)

.debug_line_str
                0x00000000      0x13f
 .debug_line_str
                0x00000000      0x13f /usr/lib/gcc/arm-none-eabi/13.2.0/../../../../arm-none-eabi/lib/thumb/v7e-m+fp/hard/crt0.o
                                 0x94 (size before relaxing)
 .debug_line_str
                0x0000013f       0x97 /usr/lib/gcc/arm-none-eabi/13.2.0/thumb/v7e-m+fp/hard/libgcc.a(_arm_muldf3.o)
 .debug_line_str
                0x0000013f       0x97 /usr/lib/gcc/arm-none-eabi/13.2.0/thumb/v7e-m+fp/hard/libgcc.a(_arm_addsubdf3.o)
 .debug_line_str
                0x0000013f       0x97 /usr/lib/gcc/arm-none-eabi/13.2.0/thumb/v7e-m+fp/hard/libgcc.a(_arm_muldivdf3.o)
 .debug_line_str
                0x0000013f       0x97 /usr/lib/gcc/arm-none-eabi/13.2.0/thumb/v7e-m+fp/hard/libgcc.a(_arm_cmpdf2.o)
 .debug_line_str
                0x0000013f       0x97 /usr/lib/gcc/arm-none-eabi/13.2.0/thumb/v7e-m+fp/hard/libgcc.a(_arm_fixdfsi.o)
 .debug_line_str
                0x0000013f       0x97 /usr/lib/gcc/arm-none-eabi/13.2.0/thumb/v7e-m+fp/hard/libgcc.a(_arm_fixunsdfsi.o)
 .debug_line_str
                0x0000013f       0x92 /usr/lib/gcc/arm-none-eabi/13.2.0/thumb/v7e-m+fp/hard/libgcc.a(_aeabi_uldivmod.o)
 .debug_line_str
                0x0000013f       0x96 /usr/lib/gcc/arm-none-eabi/13.2.0/thumb/v7e-m+fp/hard/libgcc.a(_dvmd_tls.o)

.debug_info     0x00000000     0x932f
 .debug_info    0x00000000      0x11e /usr/lib/gcc/arm-none-eabi/13.2.0/../../../../arm-none-eabi/lib/thumb/v7e-m+fp/hard/libc_nano.a(libc_a-atexit.o)
 .debug_info    0x0000011e      0x11b /usr/lib/gcc/arm-none-eabi/13.2.0/../../../../arm-none-eabi/lib/thumb/v7e-m+fp/hard/libc_nano.a(libc_a-exit.o)
 .debug_info    0x00000239      0xfb5 /usr/lib/gcc/arm-none-eabi/13.2.0/../../../../arm-none-eabi/lib/thumb/v7e-m+fp/hard/libc_nano.a(libc_a-findfp.o)
 .debug_info    0x000011ee      0x7d2 /usr/lib/gcc/arm-none-eabi/13.2.0/../../../../arm-none-eabi/lib/thumb/v7e-m+fp/hard/libc_nano.a(libc_a-fwalk.o)
 .debug_info    0x000019c0      0xa90 /usr/lib/gcc/arm-none-eabi/13.2.0/../../../../arm-none-eabi/lib/thumb/v7e-m+fp/hard/libc_nano.a(libc_a-stdio.o)
 .debug_info    0x00002450       0xe0 /usr/lib/gcc/arm-none-eabi/13.2.0/../../../../arm-none-eabi/lib/thumb/v7e-m+fp/hard/libc_nano.a(libc_a-memset.o)
 .debug_info    0x00002530      0x75c /usr/lib/gcc/arm-none-eabi/13.2.0/../../../../arm-none-eabi/lib/thumb/v7e-m+fp/hard/libc_nano.a(libc_a-closer.o)
 .debug_info    0x00002c8c      0x8a1 /usr/lib/gcc/arm-none-eabi/13.2.0/../../../../arm-none-eabi/lib/thumb/v7e-m+fp/hard/libc_nano.a(libc_a-reent.o)
 .debug_info    0x0000352d      0x715 /usr/lib/gcc/arm-none-eabi/13.2.0/../../../../arm-none-eabi/lib/thumb/v7e-m+fp/hard/libc_nano.a(libc_a-impure.o)
 .debug_info    0x00003c42      0x7a8 /usr/lib/gcc/arm-none-eabi/13.2.0/../../../../arm-none-eabi/lib/thumb/v7e-m+fp/hard/libc_nano.a(libc_a-lseekr.o)
 .debug_info    0x000043ea      0x7bf /usr/lib/gcc/arm-none-eabi/13.2.0/../../../../arm-none-eabi/lib/thumb/v7e-m+fp/hard/libc_nano.a(libc_a-readr.o)
 .debug_info    0x00004ba9      0x7c5 /usr/lib/gcc/arm-none-eabi/13.2.0/../../../../arm-none-eabi/lib/thumb/v7e-m+fp/hard/libc_nano.a(libc_a-writer.o)
 .debug_info    0x0000536e      0x10b /usr/lib/gcc/arm-none-eabi/13.2.0/../../../../arm-none-eabi/lib/thumb/v7e-m+fp/hard/libc_nano.a(libc_a-init.o)
 .debug_info    0x00005479       0xf7 /usr/lib/gcc/arm-none-eabi/13.2.0/../../../../arm-none-eabi/lib/thumb/v7e-m+fp/hard/libc_nano.a(libc_a-fini.o)
 .debug_info    0x00005570      0x218 /usr/lib/gcc/arm-none-eabi/13.2.0/../../../../arm-none-eabi/lib/thumb/v7e-m+fp/hard/libc_nano.a(libc_a-lock.o)
 .debug_info    0x00005788      0x2e7 /usr/lib/gcc/arm-none-eabi/13.2.0/../../../../arm-none-eabi/lib/thumb/v7e-m+fp/hard/libc_nano.a(libc_a-__atexit.o)
 .debug_info    0x00005a6f      0x290 /usr/lib/gcc/arm-none-eabi/13.2.0/../../../../arm-none-eabi/lib/thumb/v7e-m+fp/hard/libc_nano.a(libc_a-__call_atexit.o)
 .debug_info    0x00005cff      0x851 /usr/lib/gcc/arm-none-eabi/13.2.0/../../../../arm-none-eabi/lib/thumb/v7e-m+fp/hard/libc_nano.a(libc_a-freer.o)
 .debug_info    0x00006550      0x9bc /usr/lib/gcc/arm-none-eabi/13.2.0/../../../../arm-none-eabi/lib/thumb/v7e-m+fp/hard/libc_nano.a(libc_a-mallocr.o)
 .debug_info    0x00006f0c      0x76b /usr/lib/gcc/arm-none-eabi/13.2.0/../../../../arm-none-eabi/lib/thumb/v7e-m+fp/hard/libc_nano.a(libc_a-mlock.o)
 .debug_info    0x00007677      0x9f2 /usr/lib/gcc/arm-none-eabi/13.2.0/../../../../arm-none-eabi/lib/thumb/v7e-m+fp/hard/libc_nano.a(libc_a-fflush.o)
 .debug_info    0x00008069      0x782 /usr/lib/gcc/arm-none-eabi/13.2.0/../../../../arm-none-eabi/lib/thumb/v7e-m+fp/hard/libc_nano.a(libc_a-sbrkr.o)
 .debug_info    0x000087eb      0x121 /usr/lib/gcc/arm-none-eabi/13.2.0/../../../../arm-none-eabi/lib/thumb/v7e-m+fp/hard/libc_nano.a(libc_a-memcpy-stub.o)
 .debug_info    0x0000890c       0x3f /usr/lib/gcc/arm-none-eabi/13.2.0/thumb/v7e-m+fp/hard/libgcc.a(_arm_muldf3.o)
 .debug_info    0x0000894b       0xd3 /usr/lib/gcc/arm-none-eabi/13.2.0/thumb/v7e-m+fp/hard/libgcc.a(_arm_addsubdf3.o)
 .debug_info    0x00008a1e       0x57 /usr/lib/gcc/arm-none-eabi/13.2.0/thumb/v7e-m+fp/hard/libgcc.a(_arm_muldivdf3.o)
 .debug_info    0x00008a75       0xdf /usr/lib/gcc/arm-none-eabi/13.2.0/thumb/v7e-m+fp/hard/libgcc.a(_arm_cmpdf2.o)
 .debug_info    0x00008b54       0x3c /usr/lib/gcc/arm-none-eabi/13.2.0/thumb/v7e-m+fp/hard/libgcc.a(_arm_fixdfsi.o)
 .debug_info    0x00008b90       0x3c /usr/lib/gcc/arm-none-eabi/13.2.0/thumb/v7e-m+fp/hard/libgcc.a(_arm_fixunsdfsi.o)
 .debug_info    0x00008bcc       0x24 /usr/lib/gcc/arm-none-eabi/13.2.0/thumb/v7e-m+fp/hard/libgcc.a(_aeabi_uldivmod.o)
 .debug_info    0x00008bf0      0x703 /usr/lib/gcc/arm-none-eabi/13.2.0/thumb/v7e-m+fp/hard/libgcc.a(_udivmoddi4.o)
 .debug_info    0x000092f3       0x3c /usr/lib/gcc/arm-none-eabi/13.2.0/thumb/v7e-m+fp/hard/libgcc.a(_dvmd_tls.o)

.debug_abbrev   0x00000000     0x28ae
 .debug_abbrev  0x00000000       0xc1 /usr/lib/gcc/arm-none-eabi/13.2.0/../../../../arm-none-eabi/lib/thumb/v7e-m+fp/hard/libc_nano.a(libc_a-atexit.o)
 .debug_abbrev  0x000000c1       0xd8 /usr/lib/gcc/arm-none-eabi/13.2.0/../../../../arm-none-eabi/lib/thumb/v7e-m+fp/hard/libc_nano.a(libc_a-exit.o)
 .debug_abbrev  0x00000199      0x424 /usr/lib/gcc/arm-none-eabi/13.2.0/../../../../arm-none-eabi/lib/thumb/v7e-m+fp/hard/libc_nano.a(libc_a-findfp.o)
 .debug_abbrev  0x000005bd      0x19b /usr/lib/gcc/arm-none-eabi/13.2.0/../../../../arm-none-eabi/lib/thumb/v7e-m+fp/hard/libc_nano.a(libc_a-fwalk.o)
 .debug_abbrev  0x00000758      0x221 /usr/lib/gcc/arm-none-eabi/13.2.0/../../../../arm-none-eabi/lib/thumb/v7e-m+fp/hard/libc_nano.a(libc_a-stdio.o)
 .debug_abbrev  0x00000979       0x9e /usr/lib/gcc/arm-none-eabi/13.2.0/../../../../arm-none-eabi/lib/thumb/v7e-m+fp/hard/libc_nano.a(libc_a-memset.o)
 .debug_abbrev  0x00000a17      0x1b0 /usr/lib/gcc/arm-none-eabi/13.2.0/../../../../arm-none-eabi/lib/thumb/v7e-m+fp/hard/libc_nano.a(libc_a-closer.o)
 .debug_abbrev  0x00000bc7      0x1f7 /usr/lib/gcc/arm-none-eabi/13.2.0/../../../../arm-none-eabi/lib/thumb/v7e-m+fp/hard/libc_nano.a(libc_a-reent.o)
 .debug_abbrev  0x00000dbe      0x149 /usr/lib/gcc/arm-none-eabi/13.2.0/../../../../arm-none-eabi/lib/thumb/v7e-m+fp/hard/libc_nano.a(libc_a-impure.o)
 .debug_abbrev  0x00000f07      0x1c4 /usr/lib/gcc/arm-none-eabi/13.2.0/../../../../arm-none-eabi/lib/thumb/v7e-m+fp/hard/libc_nano.a(libc_a-lseekr.o)
 .debug_abbrev  0x000010cb      0x1b0 /usr/lib/gcc/arm-none-eabi/13.2.0/../../../../arm-none-eabi/lib/thumb/v7e-m+fp/hard/libc_nano.a(libc_a-readr.o)
 .debug_abbrev  0x0000127b      0x1b5 /usr/lib/gcc/arm-none-eabi/13.2.0/../../../../arm-none-eabi/lib/thumb/v7e-m+fp/hard/libc_nano.a(libc_a-writer.o)
 .debug_abbrev  0x00001430       0xc9 /usr/lib/gcc/arm-none-eabi/13.2.0/../../../../arm-none-eabi/lib/thumb/v7e-m+fp/hard/libc_nano.a(libc_a-init.o)
 .debug_abbrev  0x000014f9       0xcc /usr/lib/gcc/arm-none-eabi/13.2.0/../../../../arm-none-eabi/lib/thumb/v7e-m+fp/hard/libc_nano.a(libc_a-fini.o)
 .debug_abbrev  0x000015c5      0x115 /usr/lib/gcc/arm-none-eabi/13.2.0/../../../../arm-none-eabi/lib/thumb/v7e-m+fp/hard/libc_nano.a(libc_a-lock.o)
 .debug_abbrev  0x000016da      0x1e9 /usr/lib/gcc/arm-none-eabi/13.2.0/../../../../arm-none-eabi/lib/thumb/v7e-m+fp/hard/libc_nano.a(libc_a-__atexit.o)
 .debug_abbrev  0x000018c3      0x1cd /usr/lib/gcc/arm-none-eabi/13.2.0/../../../../arm-none-eabi/lib/thumb/v7e-m+fp/hard/libc_nano.a(libc_a-__call_atexit.o)
 .debug_abbrev  0x00001a90      0x236 /usr/lib/gcc/arm-none-eabi/13.2.0/../../../../arm-none-eabi/lib/thumb/v7e-m+fp/hard/libc_nano.a(libc_a-freer.o)
 .debug_abbrev  0x00001cc6      0x24a /usr/lib/gcc/arm-none-eabi/13.2.0/../../../../arm-none-eabi/lib/thumb/v7e-m+fp/hard/libc_nano.a(libc_a-mallocr.o)
 .debug_abbrev  0x00001f10      0x1bf /usr/lib/gcc/arm-none-eabi/13.2.0/../../../../arm-none-eabi/lib/thumb/v7e-m+fp/hard/libc_nano.a(libc_a-mlock.o)
 .debug_abbrev  0x000020cf      0x2b2 /usr/lib/gcc/arm-none-eabi/13.2.0/../../../../arm-none-eabi/lib/thumb/v7e-m+fp/hard/libc_nano.a(libc_a-fflush.o)
 .debug_abbrev  0x00002381      0x1da /usr/lib/gcc/arm-none-eabi/13.2.0/../../../../arm-none-eabi/lib/thumb/v7e-m+fp/hard/libc_nano.a(libc_a-sbrkr.o)
 .debug_abbrev  0x0000255b       0xc1 /usr/lib/gcc/arm-none-eabi/13.2.0/../../../../arm-none-eabi/lib/thumb/v7e-m+fp/hard/libc_nano.a(libc_a-memcpy-stub.o)
 .debug_abbrev  0x0000261c       0x26 /usr/lib/gcc/arm-none-eabi/13.2.0/thumb/v7e-m+fp/hard/libgcc.a(_arm_muldf3.o)
 .debug_abbrev  0x00002642       0x28 /usr/lib/gcc/arm-none-eabi/13.2.0/thumb/v7e-m+fp/hard/libgcc.a(_arm_addsubdf3.o)
 .debug_abbrev  0x0000266a       0x28 /usr/lib/gcc/arm-none-eabi/13.2.0/thumb/v7e-m+fp/hard/libgcc.a(_arm_muldivdf3.o)
 .debug_abbrev  0x00002692       0x28 /usr/lib/gcc/arm-none-eabi/13.2.0/thumb/v7e-m+fp/hard/libgcc.a(_arm_cmpdf2.o)
 .debug_abbrev  0x000026ba       0x28 /usr/lib/gcc/arm-none-eabi/13.2.0/thumb/v7e-m+fp/hard/libgcc.a(_arm_fixdfsi.o)
 .debug_abbrev  0x000026e2       0x28 /usr/lib/gcc/arm-none-eabi/13.2.0/thumb/v7e-m+fp/hard/libgcc.a(_arm_fixunsdfsi.o)
 .debug_abbrev  0x0000270a       0x14 /usr/lib/gcc/arm-none-eabi/13.2.0/thumb/v7e-m+fp/hard/libgcc.a(_aeabi_uldivmod.o)
 .debug_abbrev  0x0000271e      0x16a /usr/lib/gcc/arm-none-eabi/13.2.0/thumb/v7e-m+fp/hard/libgcc.a(_udivmoddi4.o)
 .debug_abbrev  0x00002888       0x26 /usr/lib/gcc/arm-none-eabi/13.2.0/thumb/v7e-m+fp/hard/libgcc.a(_dvmd_tls.o)

.debug_loclists
                0x00000000     0x1a46
 .debug_loclists
                0x00000000       0x30 /usr/lib/gcc/arm-none-eabi/13.2.0/../../../../arm-none-eabi/lib/thumb/v7e-m+fp/hard/libc_nano.a(libc_a-atexit.o)
 .debug_loclists
                0x00000030       0x20 /usr/lib/gcc/arm-none-eabi/13.2.0/../../../../arm-none-eabi/lib/thumb/v7e-m+fp/hard/libc_nano.a(libc_a-exit.o)
 .debug_loclists
                0x00000050      0x2ac /usr/lib/gcc/arm-none-eabi/13.2.0/../../../../arm-none-eabi/lib/thumb/v7e-m+fp/hard/libc_nano.a(libc_a-findfp.o)
 .debug_loclists
                0x000002fc       0x85 /usr/lib/gcc/arm-none-eabi/13.2.0/../../../../arm-none-eabi/lib/thumb/v7e-m+fp/hard/libc_nano.a(libc_a-fwalk.o)
 .debug_loclists
                0x00000381      0x25d /usr/lib/gcc/arm-none-eabi/13.2.0/../../../../arm-none-eabi/lib/thumb/v7e-m+fp/hard/libc_nano.a(libc_a-stdio.o)
 .debug_loclists
                0x000005de       0x4d /usr/lib/gcc/arm-none-eabi/13.2.0/../../../../arm-none-eabi/lib/thumb/v7e-m+fp/hard/libc_nano.a(libc_a-memset.o)
 .debug_loclists
                0x0000062b       0x58 /usr/lib/gcc/arm-none-eabi/13.2.0/../../../../arm-none-eabi/lib/thumb/v7e-m+fp/hard/libc_nano.a(libc_a-closer.o)
 .debug_loclists
                0x00000683       0x9c /usr/lib/gcc/arm-none-eabi/13.2.0/../../../../arm-none-eabi/lib/thumb/v7e-m+fp/hard/libc_nano.a(libc_a-reent.o)
 .debug_loclists
                0x0000071f       0xa0 /usr/lib/gcc/arm-none-eabi/13.2.0/../../../../arm-none-eabi/lib/thumb/v7e-m+fp/hard/libc_nano.a(libc_a-lseekr.o)
 .debug_loclists
                0x000007bf       0xa0 /usr/lib/gcc/arm-none-eabi/13.2.0/../../../../arm-none-eabi/lib/thumb/v7e-m+fp/hard/libc_nano.a(libc_a-readr.o)
 .debug_loclists
                0x0000085f       0xa0 /usr/lib/gcc/arm-none-eabi/13.2.0/../../../../arm-none-eabi/lib/thumb/v7e-m+fp/hard/libc_nano.a(libc_a-writer.o)
 .debug_loclists
                0x000008ff       0x44 /usr/lib/gcc/arm-none-eabi/13.2.0/../../../../arm-none-eabi/lib/thumb/v7e-m+fp/hard/libc_nano.a(libc_a-init.o)
 .debug_loclists
                0x00000943       0x3b /usr/lib/gcc/arm-none-eabi/13.2.0/../../../../arm-none-eabi/lib/thumb/v7e-m+fp/hard/libc_nano.a(libc_a-fini.o)
 .debug_loclists
                0x0000097e       0x29 /usr/lib/gcc/arm-none-eabi/13.2.0/../../../../arm-none-eabi/lib/thumb/v7e-m+fp/hard/libc_nano.a(libc_a-lock.o)
 .debug_loclists
                0x000009a7       0x9e /usr/lib/gcc/arm-none-eabi/13.2.0/../../../../arm-none-eabi/lib/thumb/v7e-m+fp/hard/libc_nano.a(libc_a-__atexit.o)
 .debug_loclists
                0x00000a45       0xe2 /usr/lib/gcc/arm-none-eabi/13.2.0/../../../../arm-none-eabi/lib/thumb/v7e-m+fp/hard/libc_nano.a(libc_a-__call_atexit.o)
 .debug_loclists
                0x00000b27       0xe0 /usr/lib/gcc/arm-none-eabi/13.2.0/../../../../arm-none-eabi/lib/thumb/v7e-m+fp/hard/libc_nano.a(libc_a-freer.o)
 .debug_loclists
                0x00000c07      0x23a /usr/lib/gcc/arm-none-eabi/13.2.0/../../../../arm-none-eabi/lib/thumb/v7e-m+fp/hard/libc_nano.a(libc_a-mallocr.o)
 .debug_loclists
                0x00000e41       0x46 /usr/lib/gcc/arm-none-eabi/13.2.0/../../../../arm-none-eabi/lib/thumb/v7e-m+fp/hard/libc_nano.a(libc_a-mlock.o)
 .debug_loclists
                0x00000e87      0x208 /usr/lib/gcc/arm-none-eabi/13.2.0/../../../../arm-none-eabi/lib/thumb/v7e-m+fp/hard/libc_nano.a(libc_a-fflush.o)
 .debug_loclists
                0x0000108f       0x58 /usr/lib/gcc/arm-none-eabi/13.2.0/../../../../arm-none-eabi/lib/thumb/v7e-m+fp/hard/libc_nano.a(libc_a-sbrkr.o)
 .debug_loclists
                0x000010e7       0xad /usr/lib/gcc/arm-none-eabi/13.2.0/../../../../arm-none-eabi/lib/thumb/v7e-m+fp/hard/libc_nano.a(libc_a-memcpy-stub.o)
 .debug_loclists
                0x00001194       0x29 /usr/lib/gcc/arm-none-eabi/13.2.0/../../../../arm-none-eabi/lib/thumb/v7e-m+fp/hard/libnosys.a(close.o)
 .debug_loclists
                0x000011bd       0x46 /usr/lib/gcc/arm-none-eabi/13.2.0/../../../../arm-none-eabi/lib/thumb/v7e-m+fp/hard/libnosys.a(lseek.o)
 .debug_loclists
                0x00001203       0x46 /usr/lib/gcc/arm-none-eabi/13.2.0/../../../../arm-none-eabi/lib/thumb/v7e-m+fp/hard/libnosys.a(read.o)
 .debug_loclists
                0x00001249       0x38 /usr/lib/gcc/arm-none-eabi/13.2.0/../../../../arm-none-eabi/lib/thumb/v7e-m+fp/hard/libnosys.a(sbrk.o)
 .debug_loclists
                0x00001281       0x46 /usr/lib/gcc/arm-none-eabi/13.2.0/../../../../arm-none-eabi/lib/thumb/v7e-m+fp/hard/libnosys.a(write.o)
 .debug_loclists
                0x000012c7       0x17 /usr/lib/gcc/arm-none-eabi/13.2.0/../../../../arm-none-eabi/lib/thumb/v7e-m+fp/hard/libnosys.a(_exit.o)
 .debug_loclists
                0x000012de      0x768 /usr/lib/gcc/arm-none-eabi/13.2.0/thumb/v7e-m+fp/hard/libgcc.a(_udivmoddi4.o)

.debug_aranges  0x00000000      0x4d8
 .debug_aranges
                0x00000000       0x20 /usr/lib/gcc/arm-none-eabi/13.2.0/../../../../arm-none-eabi/lib/thumb/v7e-m+fp/hard/libc_nano.a(libc_a-atexit.o)
 .debug_aranges
                0x00000020       0x20 /usr/lib/gcc/arm-none-eabi/13.2.0/../../../../arm-none-eabi/lib/thumb/v7e-m+fp/hard/libc_nano.a(libc_a-exit.o)
 .debug_aranges
                0x00000040       0x78 /usr/lib/gcc/arm-none-eabi/13.2.0/../../../../arm-none-eabi/lib/thumb/v7e-m+fp/hard/libc_nano.a(libc_a-findfp.o)
 .debug_aranges
                0x000000b8       0x20 /usr/lib/gcc/arm-none-eabi/13.2.0/../../../../arm-none-eabi/lib/thumb/v7e-m+fp/hard/libc_nano.a(libc_a-fwalk.o)
 .debug_aranges
                0x000000d8       0x40 /usr/lib/gcc/arm-none-eabi/13.2.0/../../../../arm-none-eabi/lib/thumb/v7e-m+fp/hard/libc_nano.a(libc_a-stdio.o)
 .debug_aranges
                0x00000118       0x20 /usr/lib/gcc/arm-none-eabi/13.2.0/../../../../arm-none-eabi/lib/thumb/v7e-m+fp/hard/libc_nano.a(libc_a-memset.o)
 .debug_aranges
                0x00000138       0x20 /usr/lib/gcc/arm-none-eabi/13.2.0/../../../../arm-none-eabi/lib/thumb/v7e-m+fp/hard/libc_nano.a(libc_a-closer.o)
 .debug_aranges
                0x00000158       0x20 /usr/lib/gcc/arm-none-eabi/13.2.0/../../../../arm-none-eabi/lib/thumb/v7e-m+fp/hard/libc_nano.a(libc_a-reent.o)
 .debug_aranges
                0x00000178       0x18 /usr/lib/gcc/arm-none-eabi/13.2.0/../../../../arm-none-eabi/lib/thumb/v7e-m+fp/hard/libc_nano.a(libc_a-impure.o)
 .debug_aranges
                0x00000190       0x20 /usr/lib/gcc/arm-none-eabi/13.2.0/../../../../arm-none-eabi/lib/thumb/v7e-m+fp/hard/libc_nano.a(libc_a-lseekr.o)
 .debug_aranges
                0x000001b0       0x20 /usr/lib/gcc/arm-none-eabi/13.2.0/../../../../arm-none-eabi/lib/thumb/v7e-m+fp/hard/libc_nano.a(libc_a-readr.o)
 .debug_aranges
                0x000001d0       0x20 /usr/lib/gcc/arm-none-eabi/13.2.0/../../../../arm-none-eabi/lib/thumb/v7e-m+fp/hard/libc_nano.a(libc_a-writer.o)
 .debug_aranges
                0x000001f0       0x20 /usr/lib/gcc/arm-none-eabi/13.2.0/../../../../arm-none-eabi/lib/thumb/v7e-m+fp/hard/libc_nano.a(libc_a-init.o)
 .debug_aranges
                0x00000210       0x20 /usr/lib/gcc/arm-none-eabi/13.2.0/../../../../arm-none-eabi/lib/thumb/v7e-m+fp/hard/libc_nano.a(libc_a-fini.o)
 .debug_aranges
                0x00000230       0x68 /usr/lib/gcc/arm-none-eabi/13.2.0/../../../../arm-none-eabi/lib/thumb/v7e-m+fp/hard/libc_nano.a(libc_a-lock.o)
 .debug_aranges
                0x00000298       0x20 /usr/lib/gcc/arm-none-eabi/13.2.0/../../../../arm-none-eabi/lib/thumb/v7e-m+fp/hard/libc_nano.a(libc_a-__atexit.o)
 .debug_aranges
                0x000002b8       0x20 /usr/lib/gcc/arm-none-eabi/13.2.0/../../../../arm-none-eabi/lib/thumb/v7e-m+fp/hard/libc_nano.a(libc_a-__call_atexit.o)
 .debug_aranges
                0x000002d8       0x20 /usr/lib/gcc/arm-none-eabi/13.2.0/../../../../arm-none-eabi/lib/thumb/v7e-m+fp/hard/libc_nano.a(libc_a-freer.o)
 .debug_aranges
                0x000002f8       0x28 /usr/lib/gcc/arm-none-eabi/13.2.0/../../../../arm-none-eabi/lib/thumb/v7e-m+fp/hard/libc_nano.a(libc_a-mallocr.o)
 .debug_aranges
                0x00000320       0x28 /usr/lib/gcc/arm-none-eabi/13.2.0/../../../../arm-none-eabi/lib/thumb/v7e-m+fp/hard/libc_nano.a(libc_a-mlock.o)
 .debug_aranges
                0x00000348       0x30 /usr/lib/gcc/arm-none-eabi/13.2.0/../../../../arm-none-eabi/lib/thumb/v7e-m+fp/hard/libc_nano.a(libc_a-fflush.o)
 .debug_aranges
                0x00000378       0x20 /usr/lib/gcc/arm-none-eabi/13.2.0/../../../../arm-none-eabi/lib/thumb/v7e-m+fp/hard/libc_nano.a(libc_a-sbrkr.o)
 .debug_aranges
                0x00000398       0x20 /usr/lib/gcc/arm-none-eabi/13.2.0/../../../../arm-none-eabi/lib/thumb/v7e-m+fp/hard/libc_nano.a(libc_a-memcpy-stub.o)
 .debug_aranges
                0x000003b8       0x20 /usr/lib/gcc/arm-none-eabi/13.2.0/thumb/v7e-m+fp/hard/libgcc.a(_arm_muldf3.o)
 .debug_aranges
                0x000003d8       0x20 /usr/lib/gcc/arm-none-eabi/13.2.0/thumb/v7e-m+fp/hard/libgcc.a(_arm_addsubdf3.o)
 .debug_aranges
                0x000003f8       0x20 /usr/lib/gcc/arm-none-eabi/13.2.0/thumb/v7e-m+fp/hard/libgcc.a(_arm_muldivdf3.o)
 .debug_aranges
                0x00000418       0x20 /usr/lib/gcc/arm-none-eabi/13.2.0/thumb/v7e-m+fp/hard/libgcc.a(_arm_cmpdf2.o)
 .debug_aranges
                0x00000438       0x20 /usr/lib/gcc/arm-none-eabi/13.2.0/thumb/v7e-m+fp/hard/libgcc.a(_arm_fixdfsi.o)
 .debug_aranges
                0x00000458       0x20 /usr/lib/gcc/arm-none-eabi/13.2.0/thumb/v7e-m+fp/hard/libgcc.a(_arm_fixunsdfsi.o)
 .debug_aranges
                0x00000478       0x20 /usr/lib/gcc/arm-none-eabi/13.2.0/thumb/v7e-m+fp/hard/libgcc.a(_aeabi_uldivmod.o)
 .debug_aranges
                0x00000498       0x20 /usr/lib/gcc/arm-none-eabi/13.2.0/thumb/v7e-m+fp/hard/libgcc.a(_udivmoddi4.o)
 .debug_aranges
                0x000004b8       0x20 /usr/lib/gcc/arm-none-eabi/13.2.0/thumb/v7e-m+fp/hard/libgcc.a(_dvmd_tls.o)

.debug_rnglists
                0x00000000      0x3ae
 .debug_rnglists
                0x00000000       0x13 /usr/lib/gcc/arm-none-eabi/13.2.0/../../../../arm-none-eabi/lib/thumb/v7e-m+fp/hard/libc_nano.a(libc_a-atexit.o)
 .debug_rnglists
                0x00000013       0x13 /usr/lib/gcc/arm-none-eabi/13.2.0/../../../../arm-none-eabi/lib/thumb/v7e-m+fp/hard/libc_nano.a(libc_a-exit.o)
 .debug_rnglists
                0x00000026       0x7a /usr/lib/gcc/arm-none-eabi/13.2.0/../../../../arm-none-eabi/lib/thumb/v7e-m+fp/hard/libc_nano.a(libc_a-findfp.o)
 .debug_rnglists
                0x000000a0       0x13 /usr/lib/gcc/arm-none-eabi/13.2.0/../../../../arm-none-eabi/lib/thumb/v7e-m+fp/hard/libc_nano.a(libc_a-fwalk.o)
 .debug_rnglists
                0x000000b3       0x2b /usr/lib/gcc/arm-none-eabi/13.2.0/../../../../arm-none-eabi/lib/thumb/v7e-m+fp/hard/libc_nano.a(libc_a-stdio.o)
 .debug_rnglists
                0x000000de       0x13 /usr/lib/gcc/arm-none-eabi/13.2.0/../../../../arm-none-eabi/lib/thumb/v7e-m+fp/hard/libc_nano.a(libc_a-memset.o)
 .debug_rnglists
                0x000000f1       0x13 /usr/lib/gcc/arm-none-eabi/13.2.0/../../../../arm-none-eabi/lib/thumb/v7e-m+fp/hard/libc_nano.a(libc_a-closer.o)
 .debug_rnglists
                0x00000104       0x2c /usr/lib/gcc/arm-none-eabi/13.2.0/../../../../arm-none-eabi/lib/thumb/v7e-m+fp/hard/libc_nano.a(libc_a-reent.o)
 .debug_rnglists
                0x00000130       0x13 /usr/lib/gcc/arm-none-eabi/13.2.0/../../../../arm-none-eabi/lib/thumb/v7e-m+fp/hard/libc_nano.a(libc_a-lseekr.o)
 .debug_rnglists
                0x00000143       0x13 /usr/lib/gcc/arm-none-eabi/13.2.0/../../../../arm-none-eabi/lib/thumb/v7e-m+fp/hard/libc_nano.a(libc_a-readr.o)
 .debug_rnglists
                0x00000156       0x13 /usr/lib/gcc/arm-none-eabi/13.2.0/../../../../arm-none-eabi/lib/thumb/v7e-m+fp/hard/libc_nano.a(libc_a-writer.o)
 .debug_rnglists
                0x00000169       0x13 /usr/lib/gcc/arm-none-eabi/13.2.0/../../../../arm-none-eabi/lib/thumb/v7e-m+fp/hard/libc_nano.a(libc_a-init.o)
 .debug_rnglists
                0x0000017c       0x13 /usr/lib/gcc/arm-none-eabi/13.2.0/../../../../arm-none-eabi/lib/thumb/v7e-m+fp/hard/libc_nano.a(libc_a-fini.o)
 .debug_rnglists
                0x0000018f       0x49 /usr/lib/gcc/arm-none-eabi/13.2.0/../../../../arm-none-eabi/lib/thumb/v7e-m+fp/hard/libc_nano.a(libc_a-lock.o)
 .debug_rnglists
                0x000001d8       0x14 /usr/lib/gcc/arm-none-eabi/13.2.0/../../../../arm-none-eabi/lib/thumb/v7e-m+fp/hard/libc_nano.a(libc_a-__atexit.o)
 .debug_rnglists
                0x000001ec       0x24 /usr/lib/gcc/arm-none-eabi/13.2.0/../../../../arm-none-eabi/lib/thumb/v7e-m+fp/hard/libc_nano.a(libc_a-__call_atexit.o)
 .debug_rnglists
                0x00000210       0x14 /usr/lib/gcc/arm-none-eabi/13.2.0/../../../../arm-none-eabi/lib/thumb/v7e-m+fp/hard/libc_nano.a(libc_a-freer.o)
 .debug_rnglists
                0x00000224       0x2c /usr/lib/gcc/arm-none-eabi/13.2.0/../../../../arm-none-eabi/lib/thumb/v7e-m+fp/hard/libc_nano.a(libc_a-mallocr.o)
 .debug_rnglists
                0x00000250       0x19 /usr/lib/gcc/arm-none-eabi/13.2.0/../../../../arm-none-eabi/lib/thumb/v7e-m+fp/hard/libc_nano.a(libc_a-mlock.o)
 .debug_rnglists
                0x00000269       0x40 /usr/lib/gcc/arm-none-eabi/13.2.0/../../../../arm-none-eabi/lib/thumb/v7e-m+fp/hard/libc_nano.a(libc_a-fflush.o)
 .debug_rnglists
                0x000002a9       0x13 /usr/lib/gcc/arm-none-eabi/13.2.0/../../../../arm-none-eabi/lib/thumb/v7e-m+fp/hard/libc_nano.a(libc_a-sbrkr.o)
 .debug_rnglists
                0x000002bc       0x13 /usr/lib/gcc/arm-none-eabi/13.2.0/../../../../arm-none-eabi/lib/thumb/v7e-m+fp/hard/libc_nano.a(libc_a-memcpy-stub.o)
 .debug_rnglists
                0x000002cf       0x13 /usr/lib/gcc/arm-none-eabi/13.2.0/../../../../arm-none-eabi/lib/thumb/v7e-m+fp/hard/libnosys.a(close.o)
 .debug_rnglists
                0x000002e2       0x13 /usr/lib/gcc/arm-none-eabi/13.2.0/../../../../arm-none-eabi/lib/thumb/v7e-m+fp/hard/libnosys.a(lseek.o)
 .debug_rnglists
                0x000002f5       0x13 /usr/lib/gcc/arm-none-eabi/13.2.0/../../../../arm-none-eabi/lib/thumb/v7e-m+fp/hard/libnosys.a(read.o)
 .debug_rnglists
                0x00000308       0x13 /usr/lib/gcc/arm-none-eabi/13.2.0/../../../../arm-none-eabi/lib/thumb/v7e-m+fp/hard/libnosys.a(sbrk.o)
 .debug_rnglists
                0x0000031b       0x13 /usr/lib/gcc/arm-none-eabi/13.2.0/../../../../arm-none-eabi/lib/thumb/v7e-m+fp/hard/libnosys.a(write.o)
 .debug_rnglists
                0x0000032e       0x13 /usr/lib/gcc/arm-none-eabi/13.2.0/../../../../arm-none-eabi/lib/thumb/v7e-m+fp/hard/libnosys.a(_exit.o)
 .debug_rnglists
                0x00000341       0x6d /usr/lib/gcc/arm-none-eabi/13.2.0/thumb/v7e-m+fp/hard/libgcc.a(_udivmoddi4.o)

.debug_line     0x00000000     0x3a88
 .debug_line    0x00000000       0xe4 /usr/lib/gcc/arm-none-eabi/13.2.0/../../../../arm-none-eabi/lib/thumb/v7e-m+fp/hard/libc_nano.a(libc_a-atexit.o)
 .debug_line    0x000000e4      0x159 /usr/lib/gcc/arm-none-eabi/13.2.0/../../../../arm-none-eabi/lib/thumb/v7e-m+fp/hard/libc_nano.a(libc_a-exit.o)
 .debug_line    0x0000023d      0x55d /usr/lib/gcc/arm-none-eabi/13.2.0/../../../../arm-none-eabi/lib/thumb/v7e-m+fp/hard/libc_nano.a(libc_a-findfp.o)
 .debug_line    0x0000079a      0x1da /usr/lib/gcc/arm-none-eabi/13.2.0/../../../../arm-none-eabi/lib/thumb/v7e-m+fp/hard/libc_nano.a(libc_a-fwalk.o)
 .debug_line    0x00000974      0x286 /usr/lib/gcc/arm-none-eabi/13.2.0/../../../../arm-none-eabi/lib/thumb/v7e-m+fp/hard/libc_nano.a(libc_a-stdio.o)
 .debug_line    0x00000bfa      0x123 /usr/lib/gcc/arm-none-eabi/13.2.0/../../../../arm-none-eabi/lib/thumb/v7e-m+fp/hard/libc_nano.a(libc_a-memset.o)
 .debug_line    0x00000d1d      0x1bc /usr/lib/gcc/arm-none-eabi/13.2.0/../../../../arm-none-eabi/lib/thumb/v7e-m+fp/hard/libc_nano.a(libc_a-closer.o)
 .debug_line    0x00000ed9      0x292 /usr/lib/gcc/arm-none-eabi/13.2.0/../../../../arm-none-eabi/lib/thumb/v7e-m+fp/hard/libc_nano.a(libc_a-reent.o)
 .debug_line    0x0000116b      0x108 /usr/lib/gcc/arm-none-eabi/13.2.0/../../../../arm-none-eabi/lib/thumb/v7e-m+fp/hard/libc_nano.a(libc_a-impure.o)
 .debug_line    0x00001273      0x1bb /usr/lib/gcc/arm-none-eabi/13.2.0/../../../../arm-none-eabi/lib/thumb/v7e-m+fp/hard/libc_nano.a(libc_a-lseekr.o)
 .debug_line    0x0000142e      0x1ba /usr/lib/gcc/arm-none-eabi/13.2.0/../../../../arm-none-eabi/lib/thumb/v7e-m+fp/hard/libc_nano.a(libc_a-readr.o)
 .debug_line    0x000015e8      0x1bb /usr/lib/gcc/arm-none-eabi/13.2.0/../../../../arm-none-eabi/lib/thumb/v7e-m+fp/hard/libc_nano.a(libc_a-writer.o)
 .debug_line    0x000017a3      0x11d /usr/lib/gcc/arm-none-eabi/13.2.0/../../../../arm-none-eabi/lib/thumb/v7e-m+fp/hard/libc_nano.a(libc_a-init.o)
 .debug_line    0x000018c0       0xe1 /usr/lib/gcc/arm-none-eabi/13.2.0/../../../../arm-none-eabi/lib/thumb/v7e-m+fp/hard/libc_nano.a(libc_a-fini.o)
 .debug_line    0x000019a1      0x17d /usr/lib/gcc/arm-none-eabi/13.2.0/../../../../arm-none-eabi/lib/thumb/v7e-m+fp/hard/libc_nano.a(libc_a-lock.o)
 .debug_line    0x00001b1e      0x262 /usr/lib/gcc/arm-none-eabi/13.2.0/../../../../arm-none-eabi/lib/thumb/v7e-m+fp/hard/libc_nano.a(libc_a-__atexit.o)
 .debug_line    0x00001d80      0x211 /usr/lib/gcc/arm-none-eabi/13.2.0/../../../../arm-none-eabi/lib/thumb/v7e-m+fp/hard/libc_nano.a(libc_a-__call_atexit.o)
 .debug_line    0x00001f91      0x2aa /usr/lib/gcc/arm-none-eabi/13.2.0/../../../../arm-none-eabi/lib/thumb/v7e-m+fp/hard/libc_nano.a(libc_a-freer.o)
 .debug_line    0x0000223b      0x47a /usr/lib/gcc/arm-none-eabi/13.2.0/../../../../arm-none-eabi/lib/thumb/v7e-m+fp/hard/libc_nano.a(libc_a-mallocr.o)
 .debug_line    0x000026b5      0x18a /usr/lib/gcc/arm-none-eabi/13.2.0/../../../../arm-none-eabi/lib/thumb/v7e-m+fp/hard/libc_nano.a(libc_a-mlock.o)
 .debug_line    0x0000283f      0x401 /usr/lib/gcc/arm-none-eabi/13.2.0/../../../../arm-none-eabi/lib/thumb/v7e-m+fp/hard/libc_nano.a(libc_a-fflush.o)
 .debug_line    0x00002c40      0x1bc /usr/lib/gcc/arm-none-eabi/13.2.0/../../../../arm-none-eabi/lib/thumb/v7e-m+fp/hard/libc_nano.a(libc_a-sbrkr.o)
 .debug_line    0x00002dfc      0x191 /usr/lib/gcc/arm-none-eabi/13.2.0/../../../../arm-none-eabi/lib/thumb/v7e-m+fp/hard/libc_nano.a(libc_a-memcpy-stub.o)
 .debug_line    0x00002f8d       0xf5 /usr/lib/gcc/arm-none-eabi/13.2.0/thumb/v7e-m+fp/hard/libgcc.a(_arm_muldf3.o)
 .debug_line    0x00003082      0x16f /usr/lib/gcc/arm-none-eabi/13.2.0/thumb/v7e-m+fp/hard/libgcc.a(_arm_addsubdf3.o)
 .debug_line    0x000031f1      0x184 /usr/lib/gcc/arm-none-eabi/13.2.0/thumb/v7e-m+fp/hard/libgcc.a(_arm_muldivdf3.o)
 .debug_line    0x00003375       0xa6 /usr/lib/gcc/arm-none-eabi/13.2.0/thumb/v7e-m+fp/hard/libgcc.a(_arm_cmpdf2.o)
 .debug_line    0x0000341b       0x62 /usr/lib/gcc/arm-none-eabi/13.2.0/thumb/v7e-m+fp/hard/libgcc.a(_arm_fixdfsi.o)
 .debug_line    0x0000347d       0x5e /usr/lib/gcc/arm-none-eabi/13.2.0/thumb/v7e-m+fp/hard/libgcc.a(_arm_fixunsdfsi.o)
 .debug_line    0x000034db       0x4e /usr/lib/gcc/arm-none-eabi/13.2.0/thumb/v7e-m+fp/hard/libgcc.a(_aeabi_uldivmod.o)
 .debug_line    0x00003529      0x515 /usr/lib/gcc/arm-none-eabi/13.2.0/thumb/v7e-m+fp/hard/libgcc.a(_udivmoddi4.o)
 .debug_line    0x00003a3e       0x4a /usr/lib/gcc/arm-none-eabi/13.2.0/thumb/v7e-m+fp/hard/libgcc.a(_dvmd_tls.o)

.debug_str      0x00000000     0x19e0
 .debug_str     0x00000000     0x19e0 /usr/lib/gcc/arm-none-eabi/13.2.0/../../../../arm-none-eabi/lib/thumb/v7e-m+fp/hard/libc_nano.a(libc_a-atexit.o)
                                0x1fc (size before relaxing)
 .debug_str     0x000019e0      0x1e5 /usr/lib/gcc/arm-none-eabi/13.2.0/../../../../arm-none-eabi/lib/thumb/v7e-m+fp/hard/libc_nano.a(libc_a-exit.o)
 .debug_str     0x000019e0      0x762 /usr/lib/gcc/arm-none-eabi/13.2.0/../../../../arm-none-eabi/lib/thumb/v7e-m+fp/hard/libc_nano.a(libc_a-findfp.o)
 .debug_str     0x000019e0      0x4ef /usr/lib/gcc/arm-none-eabi/13.2.0/../../../../arm-none-eabi/lib/thumb/v7e-m+fp/hard/libc_nano.a(libc_a-fwalk.o)
 .debug_str     0x000019e0      0x54c /usr/lib/gcc/arm-none-eabi/13.2.0/../../../../arm-none-eabi/lib/thumb/v7e-m+fp/hard/libc_nano.a(libc_a-stdio.o)
 .debug_str     0x000019e0      0x1bf /usr/lib/gcc/arm-none-eabi/13.2.0/../../../../arm-none-eabi/lib/thumb/v7e-m+fp/hard/libc_nano.a(libc_a-memset.o)
 .debug_str     0x000019e0      0x4d5 /usr/lib/gcc/arm-none-eabi/13.2.0/../../../../arm-none-eabi/lib/thumb/v7e-m+fp/hard/libc_nano.a(libc_a-closer.o)
 .debug_str     0x000019e0      0x4fe /usr/lib/gcc/arm-none-eabi/13.2.0/../../../../arm-none-eabi/lib/thumb/v7e-m+fp/hard/libc_nano.a(libc_a-reent.o)
 .debug_str     0x000019e0      0x4df /usr/lib/gcc/arm-none-eabi/13.2.0/../../../../arm-none-eabi/lib/thumb/v7e-m+fp/hard/libc_nano.a(libc_a-impure.o)
 .debug_str     0x000019e0      0x4e3 /usr/lib/gcc/arm-none-eabi/13.2.0/../../../../arm-none-eabi/lib/thumb/v7e-m+fp/hard/libc_nano.a(libc_a-lseekr.o)
 .debug_str     0x000019e0      0x4e3 /usr/lib/gcc/arm-none-eabi/13.2.0/../../../../arm-none-eabi/lib/thumb/v7e-m+fp/hard/libc_nano.a(libc_a-readr.o)
 .debug_str     0x000019e0      0x4e5 /usr/lib/gcc/arm-none-eabi/13.2.0/../../../../arm-none-eabi/lib/thumb/v7e-m+fp/hard/libc_nano.a(libc_a-writer.o)
 .debug_str     0x000019e0      0x220 /usr/lib/gcc/arm-none-eabi/13.2.0/../../../../arm-none-eabi/lib/thumb/v7e-m+fp/hard/libc_nano.a(libc_a-init.o)
 .debug_str     0x000019e0      0x1f6 /usr/lib/gcc/arm-none-eabi/13.2.0/../../../../arm-none-eabi/lib/thumb/v7e-m+fp/hard/libc_nano.a(libc_a-fini.o)
 .debug_str     0x000019e0      0x356 /usr/lib/gcc/arm-none-eabi/13.2.0/../../../../arm-none-eabi/lib/thumb/v7e-m+fp/hard/libc_nano.a(libc_a-lock.o)
 .debug_str     0x000019e0      0x322 /usr/lib/gcc/arm-none-eabi/13.2.0/../../../../arm-none-eabi/lib/thumb/v7e-m+fp/hard/libc_nano.a(libc_a-__atexit.o)
 .debug_str     0x000019e0      0x2db /usr/lib/gcc/arm-none-eabi/13.2.0/../../../../arm-none-eabi/lib/thumb/v7e-m+fp/hard/libc_nano.a(libc_a-__call_atexit.o)
 .debug_str     0x000019e0      0x55f /usr/lib/gcc/arm-none-eabi/13.2.0/../../../../arm-none-eabi/lib/thumb/v7e-m+fp/hard/libc_nano.a(libc_a-freer.o)
 .debug_str     0x000019e0      0x5c0 /usr/lib/gcc/arm-none-eabi/13.2.0/../../../../arm-none-eabi/lib/thumb/v7e-m+fp/hard/libc_nano.a(libc_a-mallocr.o)
 .debug_str     0x000019e0      0x561 /usr/lib/gcc/arm-none-eabi/13.2.0/../../../../arm-none-eabi/lib/thumb/v7e-m+fp/hard/libc_nano.a(libc_a-mlock.o)
 .debug_str     0x000019e0      0x5aa /usr/lib/gcc/arm-none-eabi/13.2.0/../../../../arm-none-eabi/lib/thumb/v7e-m+fp/hard/libc_nano.a(libc_a-fflush.o)
 .debug_str     0x000019e0      0x4e8 /usr/lib/gcc/arm-none-eabi/13.2.0/../../../../arm-none-eabi/lib/thumb/v7e-m+fp/hard/libc_nano.a(libc_a-sbrkr.o)
 .debug_str     0x000019e0      0x1dd /usr/lib/gcc/arm-none-eabi/13.2.0/../../../../arm-none-eabi/lib/thumb/v7e-m+fp/hard/libc_nano.a(libc_a-memcpy-stub.o)
 .debug_str     0x000019e0       0xb9 /usr/lib/gcc/arm-none-eabi/13.2.0/thumb/v7e-m+fp/hard/libgcc.a(_arm_muldf3.o)
 .debug_str     0x000019e0      0x14f /usr/lib/gcc/arm-none-eabi/13.2.0/thumb/v7e-m+fp/hard/libgcc.a(_arm_addsubdf3.o)
 .debug_str     0x000019e0       0xcf /usr/lib/gcc/arm-none-eabi/13.2.0/thumb/v7e-m+fp/hard/libgcc.a(_arm_muldivdf3.o)
 .debug_str     0x000019e0      0x158 /usr/lib/gcc/arm-none-eabi/13.2.0/thumb/v7e-m+fp/hard/libgcc.a(_arm_cmpdf2.o)
 .debug_str     0x000019e0       0xba /usr/lib/gcc/arm-none-eabi/13.2.0/thumb/v7e-m+fp/hard/libgcc.a(_arm_fixdfsi.o)
 .debug_str     0x000019e0       0xbe /usr/lib/gcc/arm-none-eabi/13.2.0/thumb/v7e-m+fp/hard/libgcc.a(_arm_fixunsdfsi.o)
 .debug_str     0x000019e0       0x9e /usr/lib/gcc/arm-none-eabi/13.2.0/thumb/v7e-m+fp/hard/libgcc.a(_aeabi_uldivmod.o)
 .debug_str     0x000019e0      0x6b6 /usr/lib/gcc/arm-none-eabi/13.2.0/thumb/v7e-m+fp/hard/libgcc.a(_udivmoddi4.o)
 .debug_str     0x000019e0       0xbe /usr/lib/gcc/arm-none-eabi/13.2.0/thumb/v7e-m+fp/hard/libgcc.a(_dvmd_tls.o)

.debug_frame    0x00000000      0x9a0
 .debug_frame   0x00000000       0x20 /usr/lib/gcc/arm-none-eabi/13.2.0/../../../../arm-none-eabi/lib/thumb/v7e-m+fp/hard/libc_nano.a(libc_a-atexit.o)
 .debug_frame   0x00000020       0x28 /usr/lib/gcc/arm-none-eabi/13.2.0/../../../../arm-none-eabi/lib/thumb/v7e-m+fp/hard/libc_nano.a(libc_a-exit.o)
 .debug_frame   0x00000048      0x144 /usr/lib/gcc/arm-none-eabi/13.2.0/../../../../arm-none-eabi/lib/thumb/v7e-m+fp/hard/libc_nano.a(libc_a-findfp.o)
 .debug_frame   0x0000018c       0x34 /usr/lib/gcc/arm-none-eabi/13.2.0/../../../../arm-none-eabi/lib/thumb/v7e-m+fp/hard/libc_nano.a(libc_a-fwalk.o)
 .debug_frame   0x000001c0       0x88 /usr/lib/gcc/arm-none-eabi/13.2.0/../../../../arm-none-eabi/lib/thumb/v7e-m+fp/hard/libc_nano.a(libc_a-stdio.o)
 .debug_frame   0x00000248       0x20 /usr/lib/gcc/arm-none-eabi/13.2.0/../../../../arm-none-eabi/lib/thumb/v7e-m+fp/hard/libc_nano.a(libc_a-memset.o)
 .debug_frame   0x00000268       0x2c /usr/lib/gcc/arm-none-eabi/13.2.0/../../../../arm-none-eabi/lib/thumb/v7e-m+fp/hard/libc_nano.a(libc_a-closer.o)
 .debug_frame   0x00000294       0x38 /usr/lib/gcc/arm-none-eabi/13.2.0/../../../../arm-none-eabi/lib/thumb/v7e-m+fp/hard/libc_nano.a(libc_a-reent.o)
 .debug_frame   0x000002cc       0x2c /usr/lib/gcc/arm-none-eabi/13.2.0/../../../../arm-none-eabi/lib/thumb/v7e-m+fp/hard/libc_nano.a(libc_a-lseekr.o)
 .debug_frame   0x000002f8       0x2c /usr/lib/gcc/arm-none-eabi/13.2.0/../../../../arm-none-eabi/lib/thumb/v7e-m+fp/hard/libc_nano.a(libc_a-readr.o)
 .debug_frame   0x00000324       0x2c /usr/lib/gcc/arm-none-eabi/13.2.0/../../../../arm-none-eabi/lib/thumb/v7e-m+fp/hard/libc_nano.a(libc_a-writer.o)
 .debug_frame   0x00000350       0x2c /usr/lib/gcc/arm-none-eabi/13.2.0/../../../../arm-none-eabi/lib/thumb/v7e-m+fp/hard/libc_nano.a(libc_a-init.o)
 .debug_frame   0x0000037c       0x38 /usr/lib/gcc/arm-none-eabi/13.2.0/../../../../arm-none-eabi/lib/thumb/v7e-m+fp/hard/libc_nano.a(libc_a-fini.o)
 .debug_frame   0x000003b4       0xb0 /usr/lib/gcc/arm-none-eabi/13.2.0/../../../../arm-none-eabi/lib/thumb/v7e-m+fp/hard/libc_nano.a(libc_a-lock.o)
 .debug_frame   0x00000464       0x34 /usr/lib/gcc/arm-none-eabi/13.2.0/../../../../arm-none-eabi/lib/thumb/v7e-m+fp/hard/libc_nano.a(libc_a-__atexit.o)
 .debug_frame   0x00000498       0x48 /usr/lib/gcc/arm-none-eabi/13.2.0/../../../../arm-none-eabi/lib/thumb/v7e-m+fp/hard/libc_nano.a(libc_a-__call_atexit.o)
 .debug_frame   0x000004e0       0x38 /usr/lib/gcc/arm-none-eabi/13.2.0/../../../../arm-none-eabi/lib/thumb/v7e-m+fp/hard/libc_nano.a(libc_a-freer.o)
 .debug_frame   0x00000518       0x50 /usr/lib/gcc/arm-none-eabi/13.2.0/../../../../arm-none-eabi/lib/thumb/v7e-m+fp/hard/libc_nano.a(libc_a-mallocr.o)
 .debug_frame   0x00000568       0x30 /usr/lib/gcc/arm-none-eabi/13.2.0/../../../../arm-none-eabi/lib/thumb/v7e-m+fp/hard/libc_nano.a(libc_a-mlock.o)
 .debug_frame   0x00000598       0x5c /usr/lib/gcc/arm-none-eabi/13.2.0/../../../../arm-none-eabi/lib/thumb/v7e-m+fp/hard/libc_nano.a(libc_a-fflush.o)
 .debug_frame   0x000005f4       0x2c /usr/lib/gcc/arm-none-eabi/13.2.0/../../../../arm-none-eabi/lib/thumb/v7e-m+fp/hard/libc_nano.a(libc_a-sbrkr.o)
 .debug_frame   0x00000620       0x28 /usr/lib/gcc/arm-none-eabi/13.2.0/../../../../arm-none-eabi/lib/thumb/v7e-m+fp/hard/libc_nano.a(libc_a-memcpy-stub.o)
 .debug_frame   0x00000648       0x20 /usr/lib/gcc/arm-none-eabi/13.2.0/../../../../arm-none-eabi/lib/thumb/v7e-m+fp/hard/libnosys.a(close.o)
 .debug_frame   0x00000668       0x20 /usr/lib/gcc/arm-none-eabi/13.2.0/../../../../arm-none-eabi/lib/thumb/v7e-m+fp/hard/libnosys.a(lseek.o)
 .debug_frame   0x00000688       0x20 /usr/lib/gcc/arm-none-eabi/13.2.0/../../../../arm-none-eabi/lib/thumb/v7e-m+fp/hard/libnosys.a(read.o)
 .debug_frame   0x000006a8       0x20 /usr/lib/gcc/arm-none-eabi/13.2.0/../../../../arm-none-eabi/lib/thumb/v7e-m+fp/hard/libnosys.a(sbrk.o)
 .debug_frame   0x000006c8       0x20 /usr/lib/gcc/arm-none-eabi/13.2.0/../../../../arm-none-eabi/lib/thumb/v7e-m+fp/hard/libnosys.a(write.o)
 .debug_frame   0x000006e8       0x20 /usr/lib/gcc/arm-none-eabi/13.2.0/../../../../arm-none-eabi/lib/thumb/v7e-m+fp/hard/libnosys.a(_exit.o)
 .debug_frame   0x00000708       0x30 /usr/lib/gcc/arm-none-eabi/13.2.0/thumb/v7e-m+fp/hard/libgcc.a(_arm_muldf3.o)
 .debug_frame   0x00000738       0xac /usr/lib/gcc/arm-none-eabi/13.2.0/thumb/v7e-m+fp/hard/libgcc.a(_arm_addsubdf3.o)
 .debug_frame   0x000007e4       0x50 /usr/lib/gcc/arm-none-eabi/13.2.0/thumb/v7e-m+fp/hard/libgcc.a(_arm_muldivdf3.o)
 .debug_frame   0x00000834       0xc4 /usr/lib/gcc/arm-none-eabi/13.2.0/thumb/v7e-m+fp/hard/libgcc.a(_arm_cmpdf2.o)
 .debug_frame   0x000008f8       0x24 /usr/lib/gcc/arm-none-eabi/13.2.0/thumb/v7e-m+fp/hard/libgcc.a(_arm_fixdfsi.o)
 .debug_frame   0x0000091c       0x24 /usr/lib/gcc/arm-none-eabi/13.2.0/thumb/v7e-m+fp/hard/libgcc.a(_arm_fixunsdfsi.o)
 .debug_frame   0x00000940       0x2c /usr/lib/gcc/arm-none-eabi/13.2.0/thumb/v7e-m+fp/hard/libgcc.a(_aeabi_uldivmod.o)
 .debug_frame   0x0000096c       0x34 /usr/lib/gcc/arm-none-eabi/13.2.0/thumb/v7e-m+fp/hard/libgcc.a(_udivmoddi4.o)

Cross Reference Table

Symbol                                            File
ADC_IRQHandler                                    CMakeFiles/MD407-MATRIX.elf.dir/vectors.s.obj
AHBPrescTable                                     CMakeFiles/MD407-MATRIX.elf.dir/device/src/system_stm32f4xx.c.obj (symbol from plugin)
APBPrescTable                                     CMakeFiles/MD407-MATRIX.elf.dir/device/src/system_stm32f4xx.c.obj (symbol from plugin)
BusFault_Handler                                  CMakeFiles/MD407-MATRIX.elf.dir/vectors.s.obj
CAN1_RX0_IRQHandler                               CMakeFiles/MD407-MATRIX.elf.dir/vectors.s.obj
CAN1_RX1_IRQHandler                               CMakeFiles/MD407-MATRIX.elf.dir/vectors.s.obj
CAN1_SCE_IRQHandler                               CMakeFiles/MD407-MATRIX.elf.dir/vectors.s.obj
CAN1_TX_IRQHandler                                CMakeFiles/MD407-MATRIX.elf.dir/vectors.s.obj
CAN2_RX0_IRQHandler                               CMakeFiles/MD407-MATRIX.elf.dir/vectors.s.obj
CAN2_RX1_IRQHandler                               CMakeFiles/MD407-MATRIX.elf.dir/vectors.s.obj
CAN2_SCE_IRQHandler                               CMakeFiles/MD407-MATRIX.elf.dir/vectors.s.obj
CAN2_TX_IRQHandler                                CMakeFiles/MD407-MATRIX.elf.dir/vectors.s.obj
CAN_CancelTransmit                                CMakeFiles/MD407-MATRIX.elf.dir/driver/src/stm32f4xx_can.c.obj (symbol from plugin)
CAN_ClearFlag                                     CMakeFiles/MD407-MATRIX.elf.dir/driver/src/stm32f4xx_can.c.obj (symbol from plugin)
CAN_ClearITPendingBit                             CMakeFiles/MD407-MATRIX.elf.dir/driver/src/stm32f4xx_can.c.obj (symbol from plugin)
CAN_DBGFreeze                                     CMakeFiles/MD407-MATRIX.elf.dir/driver/src/stm32f4xx_can.c.obj (symbol from plugin)
CAN_DeInit                                        CMakeFiles/MD407-MATRIX.elf.dir/driver/src/stm32f4xx_can.c.obj (symbol from plugin)
                                                  CMakeFiles/MD407-MATRIX.elf.dir/startup.c.obj (symbol from plugin)
CAN_FIFORelease                                   CMakeFiles/MD407-MATRIX.elf.dir/driver/src/stm32f4xx_can.c.obj (symbol from plugin)
CAN_FilterInit                                    CMakeFiles/MD407-MATRIX.elf.dir/driver/src/stm32f4xx_can.c.obj (symbol from plugin)
                                                  CMakeFiles/MD407-MATRIX.elf.dir/startup.c.obj (symbol from plugin)
CAN_GetFlagStatus                                 CMakeFiles/MD407-MATRIX.elf.dir/driver/src/stm32f4xx_can.c.obj (symbol from plugin)
CAN_GetITStatus                                   CMakeFiles/MD407-MATRIX.elf.dir/driver/src/stm32f4xx_can.c.obj (symbol from plugin)
CAN_GetLSBTransmitErrorCounter                    CMakeFiles/MD407-MATRIX.elf.dir/driver/src/stm32f4xx_can.c.obj (symbol from plugin)
CAN_GetLastErrorCode                              CMakeFiles/MD407-MATRIX.elf.dir/driver/src/stm32f4xx_can.c.obj (symbol from plugin)
CAN_GetReceiveErrorCounter                        CMakeFiles/MD407-MATRIX.elf.dir/driver/src/stm32f4xx_can.c.obj (symbol from plugin)
CAN_ITConfig                                      CMakeFiles/MD407-MATRIX.elf.dir/driver/src/stm32f4xx_can.c.obj (symbol from plugin)
CAN_Init                                          CMakeFiles/MD407-MATRIX.elf.dir/driver/src/stm32f4xx_can.c.obj (symbol from plugin)
CAN_MessagePending                                CMakeFiles/MD407-MATRIX.elf.dir/driver/src/stm32f4xx_can.c.obj (symbol from plugin)
CAN_OperatingModeRequest                          CMakeFiles/MD407-MATRIX.elf.dir/driver/src/stm32f4xx_can.c.obj (symbol from plugin)
CAN_Receive                                       CMakeFiles/MD407-MATRIX.elf.dir/driver/src/stm32f4xx_can.c.obj (symbol from plugin)
CAN_SlaveStartBank                                CMakeFiles/MD407-MATRIX.elf.dir/driver/src/stm32f4xx_can.c.obj (symbol from plugin)
CAN_Sleep                                         CMakeFiles/MD407-MATRIX.elf.dir/driver/src/stm32f4xx_can.c.obj (symbol from plugin)
CAN_StructInit                                    CMakeFiles/MD407-MATRIX.elf.dir/driver/src/stm32f4xx_can.c.obj (symbol from plugin)
CAN_TTComModeCmd                                  CMakeFiles/MD407-MATRIX.elf.dir/driver/src/stm32f4xx_can.c.obj (symbol from plugin)
CAN_Transmit                                      CMakeFiles/MD407-MATRIX.elf.dir/driver/src/stm32f4xx_can.c.obj (symbol from plugin)
CAN_TransmitStatus                                CMakeFiles/MD407-MATRIX.elf.dir/driver/src/stm32f4xx_can.c.obj (symbol from plugin)
CAN_WakeUp                                        CMakeFiles/MD407-MATRIX.elf.dir/driver/src/stm32f4xx_can.c.obj (symbol from plugin)
CRYP_IRQHandler                                   CMakeFiles/MD407-MATRIX.elf.dir/vectors.s.obj
DAC_ClearFlag                                     CMakeFiles/MD407-MATRIX.elf.dir/driver/src/stm32f4xx_dac.c.obj (symbol from plugin)
DAC_ClearITPendingBit                             CMakeFiles/MD407-MATRIX.elf.dir/driver/src/stm32f4xx_dac.c.obj (symbol from plugin)
DAC_Cmd                                           CMakeFiles/MD407-MATRIX.elf.dir/driver/src/stm32f4xx_dac.c.obj (symbol from plugin)
                                                  CMakeFiles/MD407-MATRIX.elf.dir/startup.c.obj (symbol from plugin)
DAC_DMACmd                                        CMakeFiles/MD407-MATRIX.elf.dir/driver/src/stm32f4xx_dac.c.obj (symbol from plugin)
DAC_DeInit                                        CMakeFiles/MD407-MATRIX.elf.dir/driver/src/stm32f4xx_dac.c.obj (symbol from plugin)
                                                  CMakeFiles/MD407-MATRIX.elf.dir/startup.c.obj (symbol from plugin)
DAC_DualSoftwareTriggerCmd                        CMakeFiles/MD407-MATRIX.elf.dir/driver/src/stm32f4xx_dac.c.obj (symbol from plugin)
DAC_GetDataOutputValue                            CMakeFiles/MD407-MATRIX.elf.dir/driver/src/stm32f4xx_dac.c.obj (symbol from plugin)
DAC_GetFlagStatus                                 CMakeFiles/MD407-MATRIX.elf.dir/driver/src/stm32f4xx_dac.c.obj (symbol from plugin)
DAC_GetITStatus                                   CMakeFiles/MD407-MATRIX.elf.dir/driver/src/stm32f4xx_dac.c.obj (symbol from plugin)
DAC_ITConfig                                      CMakeFiles/MD407-MATRIX.elf.dir/driver/src/stm32f4xx_dac.c.obj (symbol from plugin)
DAC_Init                                          CMakeFiles/MD407-MATRIX.elf.dir/driver/src/stm32f4xx_dac.c.obj (symbol from plugin)
                                                  CMakeFiles/MD407-MATRIX.elf.dir/startup.c.obj (symbol from plugin)
DAC_SetChannel1Data                               CMakeFiles/MD407-MATRIX.elf.dir/driver/src/stm32f4xx_dac.c.obj (symbol from plugin)
DAC_SetChannel2Data                               CMakeFiles/MD407-MATRIX.elf.dir/driver/src/stm32f4xx_dac.c.obj (symbol from plugin)
                                                  CMakeFiles/MD407-MATRIX.elf.dir/startup.c.obj (symbol from plugin)
DAC_SetDualChannelData                            CMakeFiles/MD407-MATRIX.elf.dir/driver/src/stm32f4xx_dac.c.obj (symbol from plugin)
DAC_SoftwareTriggerCmd                            CMakeFiles/MD407-MATRIX.elf.dir/driver/src/stm32f4xx_dac.c.obj (symbol from plugin)
DAC_StructInit                                    CMakeFiles/MD407-MATRIX.elf.dir/driver/src/stm32f4xx_dac.c.obj (symbol from plugin)
                                                  CMakeFiles/MD407-MATRIX.elf.dir/startup.c.obj (symbol from plugin)
DAC_WaveGenerationCmd                             CMakeFiles/MD407-MATRIX.elf.dir/driver/src/stm32f4xx_dac.c.obj (symbol from plugin)
DCMI_IRQHandler                                   CMakeFiles/MD407-MATRIX.elf.dir/vectors.s.obj
DMA1_Stream0_IRQHandler                           CMakeFiles/MD407-MATRIX.elf.dir/vectors.s.obj
DMA1_Stream1_IRQHandler                           CMakeFiles/MD407-MATRIX.elf.dir/vectors.s.obj
DMA1_Stream2_IRQHandler                           CMakeFiles/MD407-MATRIX.elf.dir/vectors.s.obj
DMA1_Stream3_IRQHandler                           CMakeFiles/MD407-MATRIX.elf.dir/vectors.s.obj
DMA1_Stream4_IRQHandler                           CMakeFiles/MD407-MATRIX.elf.dir/vectors.s.obj
DMA1_Stream5_IRQHandler                           CMakeFiles/MD407-MATRIX.elf.dir/vectors.s.obj
DMA1_Stream6_IRQHandler                           CMakeFiles/MD407-MATRIX.elf.dir/vectors.s.obj
DMA1_Stream7_IRQHandler                           CMakeFiles/MD407-MATRIX.elf.dir/vectors.s.obj
DMA2_Stream0_IRQHandler                           CMakeFiles/MD407-MATRIX.elf.dir/vectors.s.obj
DMA2_Stream1_IRQHandler                           CMakeFiles/MD407-MATRIX.elf.dir/vectors.s.obj
DMA2_Stream2_IRQHandler                           CMakeFiles/MD407-MATRIX.elf.dir/vectors.s.obj
DMA2_Stream3_IRQHandler                           CMakeFiles/MD407-MATRIX.elf.dir/vectors.s.obj
DMA2_Stream4_IRQHandler                           CMakeFiles/MD407-MATRIX.elf.dir/vectors.s.obj
DMA2_Stream5_IRQHandler                           CMakeFiles/MD407-MATRIX.elf.dir/vectors.s.obj
DMA2_Stream6_IRQHandler                           CMakeFiles/MD407-MATRIX.elf.dir/vectors.s.obj
DMA2_Stream7_IRQHandler                           CMakeFiles/MD407-MATRIX.elf.dir/vectors.s.obj
DebugMon_Handler                                  CMakeFiles/MD407-MATRIX.elf.dir/vectors.s.obj
Default_Handler                                   CMakeFiles/MD407-MATRIX.elf.dir/vectors.s.obj
ETH_IRQHandler                                    CMakeFiles/MD407-MATRIX.elf.dir/vectors.s.obj
ETH_WKUP_IRQHandler                               CMakeFiles/MD407-MATRIX.elf.dir/vectors.s.obj
EXTI0_IRQHandler                                  CMakeFiles/MD407-MATRIX.elf.dir/vectors.s.obj
EXTI15_10_IRQHandler                              CMakeFiles/MD407-MATRIX.elf.dir/vectors.s.obj
EXTI1_IRQHandler                                  CMakeFiles/MD407-MATRIX.elf.dir/vectors.s.obj
EXTI2_IRQHandler                                  CMakeFiles/MD407-MATRIX.elf.dir/vectors.s.obj
EXTI3_IRQHandler                                  CMakeFiles/MD407-MATRIX.elf.dir/vectors.s.obj
EXTI4_IRQHandler                                  CMakeFiles/MD407-MATRIX.elf.dir/vectors.s.obj
EXTI9_5_IRQHandler                                CMakeFiles/MD407-MATRIX.elf.dir/vectors.s.obj
EXTI_ClearFlag                                    CMakeFiles/MD407-MATRIX.elf.dir/driver/src/stm32f4xx_exti.c.obj (symbol from plugin)
EXTI_ClearITPendingBit                            CMakeFiles/MD407-MATRIX.elf.dir/driver/src/stm32f4xx_exti.c.obj (symbol from plugin)
EXTI_DeInit                                       CMakeFiles/MD407-MATRIX.elf.dir/driver/src/stm32f4xx_exti.c.obj (symbol from plugin)
                                                  CMakeFiles/MD407-MATRIX.elf.dir/startup.c.obj (symbol from plugin)
EXTI_GenerateSWInterrupt                          CMakeFiles/MD407-MATRIX.elf.dir/driver/src/stm32f4xx_exti.c.obj (symbol from plugin)
EXTI_GetFlagStatus                                CMakeFiles/MD407-MATRIX.elf.dir/driver/src/stm32f4xx_exti.c.obj (symbol from plugin)
EXTI_GetITStatus                                  CMakeFiles/MD407-MATRIX.elf.dir/driver/src/stm32f4xx_exti.c.obj (symbol from plugin)
EXTI_Init                                         CMakeFiles/MD407-MATRIX.elf.dir/driver/src/stm32f4xx_exti.c.obj (symbol from plugin)
                                                  CMakeFiles/MD407-MATRIX.elf.dir/startup.c.obj (symbol from plugin)
EXTI_StructInit                                   CMakeFiles/MD407-MATRIX.elf.dir/driver/src/stm32f4xx_exti.c.obj (symbol from plugin)
                                                  CMakeFiles/MD407-MATRIX.elf.dir/startup.c.obj (symbol from plugin)
EnableTimerInterrupt                              CMakeFiles/MD407-MATRIX.elf.dir/src/main.c.obj (symbol from plugin)
FLASH_IRQHandler                                  CMakeFiles/MD407-MATRIX.elf.dir/vectors.s.obj
FPU_IRQHandler                                    CMakeFiles/MD407-MATRIX.elf.dir/vectors.s.obj
FSMC_IRQHandler                                   CMakeFiles/MD407-MATRIX.elf.dir/vectors.s.obj
GPIO_DeInit                                       CMakeFiles/MD407-MATRIX.elf.dir/driver/src/stm32f4xx_gpio.c.obj (symbol from plugin)
                                                  CMakeFiles/MD407-MATRIX.elf.dir/startup.c.obj (symbol from plugin)
                                                  CMakeFiles/MD407-MATRIX.elf.dir/libraries/utils/usart.c.obj (symbol from plugin)
GPIO_Init                                         CMakeFiles/MD407-MATRIX.elf.dir/driver/src/stm32f4xx_gpio.c.obj (symbol from plugin)
                                                  CMakeFiles/MD407-MATRIX.elf.dir/startup.c.obj (symbol from plugin)
                                                  CMakeFiles/MD407-MATRIX.elf.dir/libraries/utils/usart.c.obj (symbol from plugin)
GPIO_PinAFConfig                                  CMakeFiles/MD407-MATRIX.elf.dir/driver/src/stm32f4xx_gpio.c.obj (symbol from plugin)
                                                  CMakeFiles/MD407-MATRIX.elf.dir/startup.c.obj (symbol from plugin)
                                                  CMakeFiles/MD407-MATRIX.elf.dir/libraries/utils/usart.c.obj (symbol from plugin)
GPIO_PinLockConfig                                CMakeFiles/MD407-MATRIX.elf.dir/driver/src/stm32f4xx_gpio.c.obj (symbol from plugin)
GPIO_ReadInputData                                CMakeFiles/MD407-MATRIX.elf.dir/driver/src/stm32f4xx_gpio.c.obj (symbol from plugin)
GPIO_ReadInputDataBit                             CMakeFiles/MD407-MATRIX.elf.dir/driver/src/stm32f4xx_gpio.c.obj (symbol from plugin)
GPIO_ReadOutputData                               CMakeFiles/MD407-MATRIX.elf.dir/driver/src/stm32f4xx_gpio.c.obj (symbol from plugin)
GPIO_ReadOutputDataBit                            CMakeFiles/MD407-MATRIX.elf.dir/driver/src/stm32f4xx_gpio.c.obj (symbol from plugin)
GPIO_ResetBits                                    CMakeFiles/MD407-MATRIX.elf.dir/driver/src/stm32f4xx_gpio.c.obj (symbol from plugin)
GPIO_SetBits                                      CMakeFiles/MD407-MATRIX.elf.dir/driver/src/stm32f4xx_gpio.c.obj (symbol from plugin)
GPIO_StructInit                                   CMakeFiles/MD407-MATRIX.elf.dir/driver/src/stm32f4xx_gpio.c.obj (symbol from plugin)
                                                  CMakeFiles/MD407-MATRIX.elf.dir/startup.c.obj (symbol from plugin)
                                                  CMakeFiles/MD407-MATRIX.elf.dir/libraries/utils/usart.c.obj (symbol from plugin)
GPIO_ToggleBits                                   CMakeFiles/MD407-MATRIX.elf.dir/driver/src/stm32f4xx_gpio.c.obj (symbol from plugin)
GPIO_Write                                        CMakeFiles/MD407-MATRIX.elf.dir/driver/src/stm32f4xx_gpio.c.obj (symbol from plugin)
GPIO_WriteBit                                     CMakeFiles/MD407-MATRIX.elf.dir/driver/src/stm32f4xx_gpio.c.obj (symbol from plugin)
                                                  CMakeFiles/MD407-MATRIX.elf.dir/startup.c.obj (symbol from plugin)
HASH_RNG_IRQHandler                               CMakeFiles/MD407-MATRIX.elf.dir/vectors.s.obj
HardFault_Handler                                 CMakeFiles/MD407-MATRIX.elf.dir/vectors.s.obj
I2C1_ER_IRQHandler                                CMakeFiles/MD407-MATRIX.elf.dir/vectors.s.obj
I2C1_EV_IRQHandler                                CMakeFiles/MD407-MATRIX.elf.dir/vectors.s.obj
I2C2_ER_IRQHandler                                CMakeFiles/MD407-MATRIX.elf.dir/vectors.s.obj
I2C2_EV_IRQHandler                                CMakeFiles/MD407-MATRIX.elf.dir/vectors.s.obj
I2C3_ER_IRQHandler                                CMakeFiles/MD407-MATRIX.elf.dir/vectors.s.obj
I2C3_EV_IRQHandler                                CMakeFiles/MD407-MATRIX.elf.dir/vectors.s.obj
MemManage_Handler                                 CMakeFiles/MD407-MATRIX.elf.dir/vectors.s.obj
NMI_Handler                                       CMakeFiles/MD407-MATRIX.elf.dir/vectors.s.obj
NVIC_Init                                         CMakeFiles/MD407-MATRIX.elf.dir/driver/src/misc.c.obj (symbol from plugin)
                                                  CMakeFiles/MD407-MATRIX.elf.dir/src/main.c.obj (symbol from plugin)
NVIC_PriorityGroupConfig                          CMakeFiles/MD407-MATRIX.elf.dir/driver/src/misc.c.obj (symbol from plugin)
                                                  CMakeFiles/MD407-MATRIX.elf.dir/src/main.c.obj (symbol from plugin)
NVIC_SetVectorTable                               CMakeFiles/MD407-MATRIX.elf.dir/driver/src/misc.c.obj (symbol from plugin)
NVIC_SystemLPConfig                               CMakeFiles/MD407-MATRIX.elf.dir/driver/src/misc.c.obj (symbol from plugin)
OTG_FS_IRQHandler                                 CMakeFiles/MD407-MATRIX.elf.dir/vectors.s.obj
OTG_FS_WKUP_IRQHandler                            CMakeFiles/MD407-MATRIX.elf.dir/vectors.s.obj
OTG_HS_EP1_IN_IRQHandler                          CMakeFiles/MD407-MATRIX.elf.dir/vectors.s.obj
OTG_HS_EP1_OUT_IRQHandler                         CMakeFiles/MD407-MATRIX.elf.dir/vectors.s.obj
OTG_HS_IRQHandler                                 CMakeFiles/MD407-MATRIX.elf.dir/vectors.s.obj
OTG_HS_WKUP_IRQHandler                            CMakeFiles/MD407-MATRIX.elf.dir/vectors.s.obj
PVD_IRQHandler                                    CMakeFiles/MD407-MATRIX.elf.dir/vectors.s.obj
PendSV_Handler                                    /tmp/ccMZqXQe.ltrans0.ltrans.o
                                                  CMakeFiles/MD407-MATRIX.elf.dir/libraries/FreeRTOS-Kernel/portable/GCC/ARM_CM4F/port.c.obj (symbol from plugin)
                                                  CMakeFiles/MD407-MATRIX.elf.dir/vectors.s.obj
RCC_AHB1PeriphClockCmd                            CMakeFiles/MD407-MATRIX.elf.dir/driver/src/stm32f4xx_rcc.c.obj (symbol from plugin)
                                                  CMakeFiles/MD407-MATRIX.elf.dir/startup.c.obj (symbol from plugin)
                                                  CMakeFiles/MD407-MATRIX.elf.dir/libraries/utils/usart.c.obj (symbol from plugin)
RCC_AHB1PeriphClockLPModeCmd                      CMakeFiles/MD407-MATRIX.elf.dir/driver/src/stm32f4xx_rcc.c.obj (symbol from plugin)
RCC_AHB1PeriphResetCmd                            CMakeFiles/MD407-MATRIX.elf.dir/driver/src/stm32f4xx_rcc.c.obj (symbol from plugin)
                                                  CMakeFiles/MD407-MATRIX.elf.dir/driver/src/stm32f4xx_gpio.c.obj (symbol from plugin)
RCC_AHB2PeriphClockCmd                            CMakeFiles/MD407-MATRIX.elf.dir/driver/src/stm32f4xx_rcc.c.obj (symbol from plugin)
RCC_AHB2PeriphClockLPModeCmd                      CMakeFiles/MD407-MATRIX.elf.dir/driver/src/stm32f4xx_rcc.c.obj (symbol from plugin)
RCC_AHB2PeriphResetCmd                            CMakeFiles/MD407-MATRIX.elf.dir/driver/src/stm32f4xx_rcc.c.obj (symbol from plugin)
                                                  CMakeFiles/MD407-MATRIX.elf.dir/driver/src/stm32f4xx_rng.c.obj (symbol from plugin)
RCC_AHB3PeriphClockCmd                            CMakeFiles/MD407-MATRIX.elf.dir/driver/src/stm32f4xx_rcc.c.obj (symbol from plugin)
RCC_AHB3PeriphClockLPModeCmd                      CMakeFiles/MD407-MATRIX.elf.dir/driver/src/stm32f4xx_rcc.c.obj (symbol from plugin)
RCC_AHB3PeriphResetCmd                            CMakeFiles/MD407-MATRIX.elf.dir/driver/src/stm32f4xx_rcc.c.obj (symbol from plugin)
RCC_APB1PeriphClockCmd                            CMakeFiles/MD407-MATRIX.elf.dir/driver/src/stm32f4xx_rcc.c.obj (symbol from plugin)
                                                  CMakeFiles/MD407-MATRIX.elf.dir/src/main.c.obj (symbol from plugin)
                                                  CMakeFiles/MD407-MATRIX.elf.dir/startup.c.obj (symbol from plugin)
                                                  CMakeFiles/MD407-MATRIX.elf.dir/libraries/utils/timer.c.obj (symbol from plugin)
RCC_APB1PeriphClockLPModeCmd                      CMakeFiles/MD407-MATRIX.elf.dir/driver/src/stm32f4xx_rcc.c.obj (symbol from plugin)
                                                  CMakeFiles/MD407-MATRIX.elf.dir/startup.c.obj (symbol from plugin)
RCC_APB1PeriphResetCmd                            CMakeFiles/MD407-MATRIX.elf.dir/driver/src/stm32f4xx_rcc.c.obj (symbol from plugin)
                                                  CMakeFiles/MD407-MATRIX.elf.dir/driver/src/stm32f4xx_usart.c.obj (symbol from plugin)
                                                  CMakeFiles/MD407-MATRIX.elf.dir/driver/src/stm32f4xx_tim.c.obj (symbol from plugin)
                                                  CMakeFiles/MD407-MATRIX.elf.dir/driver/src/stm32f4xx_dac.c.obj (symbol from plugin)
                                                  CMakeFiles/MD407-MATRIX.elf.dir/driver/src/stm32f4xx_can.c.obj (symbol from plugin)
RCC_APB2PeriphClockCmd                            CMakeFiles/MD407-MATRIX.elf.dir/driver/src/stm32f4xx_rcc.c.obj (symbol from plugin)
                                                  CMakeFiles/MD407-MATRIX.elf.dir/startup.c.obj (symbol from plugin)
                                                  CMakeFiles/MD407-MATRIX.elf.dir/libraries/utils/usart.c.obj (symbol from plugin)
RCC_APB2PeriphClockLPModeCmd                      CMakeFiles/MD407-MATRIX.elf.dir/driver/src/stm32f4xx_rcc.c.obj (symbol from plugin)
RCC_APB2PeriphResetCmd                            CMakeFiles/MD407-MATRIX.elf.dir/driver/src/stm32f4xx_rcc.c.obj (symbol from plugin)
                                                  CMakeFiles/MD407-MATRIX.elf.dir/driver/src/stm32f4xx_usart.c.obj (symbol from plugin)
                                                  CMakeFiles/MD407-MATRIX.elf.dir/driver/src/stm32f4xx_tim.c.obj (symbol from plugin)
                                                  CMakeFiles/MD407-MATRIX.elf.dir/driver/src/stm32f4xx_syscfg.c.obj (symbol from plugin)
RCC_AdjustHSICalibrationValue                     CMakeFiles/MD407-MATRIX.elf.dir/driver/src/stm32f4xx_rcc.c.obj (symbol from plugin)
RCC_BackupResetCmd                                CMakeFiles/MD407-MATRIX.elf.dir/driver/src/stm32f4xx_rcc.c.obj (symbol from plugin)
RCC_ClearFlag                                     CMakeFiles/MD407-MATRIX.elf.dir/driver/src/stm32f4xx_rcc.c.obj (symbol from plugin)
RCC_ClearITPendingBit                             CMakeFiles/MD407-MATRIX.elf.dir/driver/src/stm32f4xx_rcc.c.obj (symbol from plugin)
RCC_ClockSecuritySystemCmd                        CMakeFiles/MD407-MATRIX.elf.dir/driver/src/stm32f4xx_rcc.c.obj (symbol from plugin)
RCC_DeInit                                        CMakeFiles/MD407-MATRIX.elf.dir/driver/src/stm32f4xx_rcc.c.obj (symbol from plugin)
RCC_GetClocksFreq                                 CMakeFiles/MD407-MATRIX.elf.dir/driver/src/stm32f4xx_rcc.c.obj (symbol from plugin)
                                                  CMakeFiles/MD407-MATRIX.elf.dir/src/main.c.obj (symbol from plugin)
                                                  CMakeFiles/MD407-MATRIX.elf.dir/libraries/utils/timer.c.obj (symbol from plugin)
                                                  CMakeFiles/MD407-MATRIX.elf.dir/driver/src/stm32f4xx_usart.c.obj (symbol from plugin)
RCC_GetFlagStatus                                 CMakeFiles/MD407-MATRIX.elf.dir/driver/src/stm32f4xx_rcc.c.obj (symbol from plugin)
RCC_GetITStatus                                   CMakeFiles/MD407-MATRIX.elf.dir/driver/src/stm32f4xx_rcc.c.obj (symbol from plugin)
RCC_GetSYSCLKSource                               CMakeFiles/MD407-MATRIX.elf.dir/driver/src/stm32f4xx_rcc.c.obj (symbol from plugin)
RCC_HCLKConfig                                    CMakeFiles/MD407-MATRIX.elf.dir/driver/src/stm32f4xx_rcc.c.obj (symbol from plugin)
RCC_HSEConfig                                     CMakeFiles/MD407-MATRIX.elf.dir/driver/src/stm32f4xx_rcc.c.obj (symbol from plugin)
RCC_HSICmd                                        CMakeFiles/MD407-MATRIX.elf.dir/driver/src/stm32f4xx_rcc.c.obj (symbol from plugin)
RCC_I2SCLKConfig                                  CMakeFiles/MD407-MATRIX.elf.dir/driver/src/stm32f4xx_rcc.c.obj (symbol from plugin)
RCC_IRQHandler                                    CMakeFiles/MD407-MATRIX.elf.dir/vectors.s.obj
RCC_ITConfig                                      CMakeFiles/MD407-MATRIX.elf.dir/driver/src/stm32f4xx_rcc.c.obj (symbol from plugin)
RCC_LSEConfig                                     CMakeFiles/MD407-MATRIX.elf.dir/driver/src/stm32f4xx_rcc.c.obj (symbol from plugin)
RCC_LSICmd                                        CMakeFiles/MD407-MATRIX.elf.dir/driver/src/stm32f4xx_rcc.c.obj (symbol from plugin)
RCC_MCO1Config                                    CMakeFiles/MD407-MATRIX.elf.dir/driver/src/stm32f4xx_rcc.c.obj (symbol from plugin)
RCC_MCO2Config                                    CMakeFiles/MD407-MATRIX.elf.dir/driver/src/stm32f4xx_rcc.c.obj (symbol from plugin)
RCC_PCLK1Config                                   CMakeFiles/MD407-MATRIX.elf.dir/driver/src/stm32f4xx_rcc.c.obj (symbol from plugin)
RCC_PCLK2Config                                   CMakeFiles/MD407-MATRIX.elf.dir/driver/src/stm32f4xx_rcc.c.obj (symbol from plugin)
RCC_PLLCmd                                        CMakeFiles/MD407-MATRIX.elf.dir/driver/src/stm32f4xx_rcc.c.obj (symbol from plugin)
RCC_PLLConfig                                     CMakeFiles/MD407-MATRIX.elf.dir/driver/src/stm32f4xx_rcc.c.obj (symbol from plugin)
RCC_PLLI2SCmd                                     CMakeFiles/MD407-MATRIX.elf.dir/driver/src/stm32f4xx_rcc.c.obj (symbol from plugin)
RCC_PLLI2SConfig                                  CMakeFiles/MD407-MATRIX.elf.dir/driver/src/stm32f4xx_rcc.c.obj (symbol from plugin)
RCC_RTCCLKCmd                                     CMakeFiles/MD407-MATRIX.elf.dir/driver/src/stm32f4xx_rcc.c.obj (symbol from plugin)
RCC_RTCCLKConfig                                  CMakeFiles/MD407-MATRIX.elf.dir/driver/src/stm32f4xx_rcc.c.obj (symbol from plugin)
RCC_SYSCLKConfig                                  CMakeFiles/MD407-MATRIX.elf.dir/driver/src/stm32f4xx_rcc.c.obj (symbol from plugin)
RCC_TIMCLKPresConfig                              CMakeFiles/MD407-MATRIX.elf.dir/driver/src/stm32f4xx_rcc.c.obj (symbol from plugin)
RCC_WaitForHSEStartUp                             CMakeFiles/MD407-MATRIX.elf.dir/driver/src/stm32f4xx_rcc.c.obj (symbol from plugin)
RNG_ClearFlag                                     CMakeFiles/MD407-MATRIX.elf.dir/driver/src/stm32f4xx_rng.c.obj (symbol from plugin)
RNG_ClearITPendingBit                             CMakeFiles/MD407-MATRIX.elf.dir/driver/src/stm32f4xx_rng.c.obj (symbol from plugin)
RNG_Cmd                                           CMakeFiles/MD407-MATRIX.elf.dir/driver/src/stm32f4xx_rng.c.obj (symbol from plugin)
RNG_DeInit                                        CMakeFiles/MD407-MATRIX.elf.dir/driver/src/stm32f4xx_rng.c.obj (symbol from plugin)
RNG_GetFlagStatus                                 CMakeFiles/MD407-MATRIX.elf.dir/driver/src/stm32f4xx_rng.c.obj (symbol from plugin)
RNG_GetITStatus                                   CMakeFiles/MD407-MATRIX.elf.dir/driver/src/stm32f4xx_rng.c.obj (symbol from plugin)
RNG_GetRandomNumber                               CMakeFiles/MD407-MATRIX.elf.dir/driver/src/stm32f4xx_rng.c.obj (symbol from plugin)
RNG_ITConfig                                      CMakeFiles/MD407-MATRIX.elf.dir/driver/src/stm32f4xx_rng.c.obj (symbol from plugin)
RTC_Alarm_IRQHandler                              CMakeFiles/MD407-MATRIX.elf.dir/vectors.s.obj
RTC_WKUP_IRQHandler                               CMakeFiles/MD407-MATRIX.elf.dir/vectors.s.obj
Reset_Handler                                     CMakeFiles/MD407-MATRIX.elf.dir/vectors.s.obj
SDIO_IRQHandler                                   CMakeFiles/MD407-MATRIX.elf.dir/vectors.s.obj
SPI1_IRQHandler                                   CMakeFiles/MD407-MATRIX.elf.dir/vectors.s.obj
SPI2_IRQHandler                                   CMakeFiles/MD407-MATRIX.elf.dir/vectors.s.obj
SPI3_IRQHandler                                   CMakeFiles/MD407-MATRIX.elf.dir/vectors.s.obj
SVC_Handler                                       /tmp/ccMZqXQe.ltrans0.ltrans.o
                                                  CMakeFiles/MD407-MATRIX.elf.dir/libraries/FreeRTOS-Kernel/portable/GCC/ARM_CM4F/port.c.obj (symbol from plugin)
                                                  CMakeFiles/MD407-MATRIX.elf.dir/vectors.s.obj
SYSCFG_CompensationCellCmd                        CMakeFiles/MD407-MATRIX.elf.dir/driver/src/stm32f4xx_syscfg.c.obj (symbol from plugin)
SYSCFG_DeInit                                     CMakeFiles/MD407-MATRIX.elf.dir/driver/src/stm32f4xx_syscfg.c.obj (symbol from plugin)
SYSCFG_ETH_MediaInterfaceConfig                   CMakeFiles/MD407-MATRIX.elf.dir/driver/src/stm32f4xx_syscfg.c.obj (symbol from plugin)
SYSCFG_EXTILineConfig                             CMakeFiles/MD407-MATRIX.elf.dir/driver/src/stm32f4xx_syscfg.c.obj (symbol from plugin)
                                                  CMakeFiles/MD407-MATRIX.elf.dir/startup.c.obj (symbol from plugin)
SYSCFG_GetCompensationCellStatus                  CMakeFiles/MD407-MATRIX.elf.dir/driver/src/stm32f4xx_syscfg.c.obj (symbol from plugin)
SYSCFG_MemoryRemapConfig                          CMakeFiles/MD407-MATRIX.elf.dir/driver/src/stm32f4xx_syscfg.c.obj (symbol from plugin)
SysTick_CLKSourceConfig                           CMakeFiles/MD407-MATRIX.elf.dir/driver/src/misc.c.obj (symbol from plugin)
SysTick_Handler                                   /tmp/ccMZqXQe.ltrans0.ltrans.o
                                                  CMakeFiles/MD407-MATRIX.elf.dir/libraries/FreeRTOS-Kernel/portable/GCC/ARM_CM4F/port.c.obj (symbol from plugin)
                                                  CMakeFiles/MD407-MATRIX.elf.dir/vectors.s.obj
SystemCoreClock                                   CMakeFiles/MD407-MATRIX.elf.dir/device/src/system_stm32f4xx.c.obj (symbol from plugin)
SystemCoreClockUpdate                             CMakeFiles/MD407-MATRIX.elf.dir/device/src/system_stm32f4xx.c.obj (symbol from plugin)
SystemInit                                        /tmp/ccMZqXQe.ltrans0.ltrans.o
                                                  CMakeFiles/MD407-MATRIX.elf.dir/device/src/system_stm32f4xx.c.obj (symbol from plugin)
                                                  CMakeFiles/MD407-MATRIX.elf.dir/vectors.s.obj
TAMP_STAMP_IRQHandler                             CMakeFiles/MD407-MATRIX.elf.dir/vectors.s.obj
TIM1_BRK_TIM9_IRQHandler                          CMakeFiles/MD407-MATRIX.elf.dir/vectors.s.obj
TIM1_CC_IRQHandler                                CMakeFiles/MD407-MATRIX.elf.dir/vectors.s.obj
TIM1_TRG_COM_TIM11_IRQHandler                     CMakeFiles/MD407-MATRIX.elf.dir/vectors.s.obj
TIM1_UP_TIM10_IRQHandler                          CMakeFiles/MD407-MATRIX.elf.dir/vectors.s.obj
TIM2_IRQHandler                                   CMakeFiles/MD407-MATRIX.elf.dir/vectors.s.obj
TIM3_IRQHandler                                   CMakeFiles/MD407-MATRIX.elf.dir/vectors.s.obj
TIM4_IRQHandler                                   CMakeFiles/MD407-MATRIX.elf.dir/vectors.s.obj
TIM5_IRQHandler                                   /tmp/ccMZqXQe.ltrans0.ltrans.o
                                                  CMakeFiles/MD407-MATRIX.elf.dir/src/main.c.obj (symbol from plugin)
                                                  CMakeFiles/MD407-MATRIX.elf.dir/vectors.s.obj
TIM5_TimeBaseStructure                            CMakeFiles/MD407-MATRIX.elf.dir/src/main.c.obj (symbol from plugin)
TIM6_DAC_IRQHandler                               CMakeFiles/MD407-MATRIX.elf.dir/vectors.s.obj
TIM7_IRQHandler                                   CMakeFiles/MD407-MATRIX.elf.dir/vectors.s.obj
TIM8_BRK_TIM12_IRQHandler                         CMakeFiles/MD407-MATRIX.elf.dir/vectors.s.obj
TIM8_CC_IRQHandler                                CMakeFiles/MD407-MATRIX.elf.dir/vectors.s.obj
TIM8_TRG_COM_TIM14_IRQHandler                     CMakeFiles/MD407-MATRIX.elf.dir/vectors.s.obj
TIM8_UP_TIM13_IRQHandler                          CMakeFiles/MD407-MATRIX.elf.dir/vectors.s.obj
TIM_ARRPreloadConfig                              CMakeFiles/MD407-MATRIX.elf.dir/driver/src/stm32f4xx_tim.c.obj (symbol from plugin)
TIM_BDTRConfig                                    CMakeFiles/MD407-MATRIX.elf.dir/driver/src/stm32f4xx_tim.c.obj (symbol from plugin)
TIM_BDTRStructInit                                CMakeFiles/MD407-MATRIX.elf.dir/driver/src/stm32f4xx_tim.c.obj (symbol from plugin)
TIM_CCPreloadControl                              CMakeFiles/MD407-MATRIX.elf.dir/driver/src/stm32f4xx_tim.c.obj (symbol from plugin)
TIM_CCxCmd                                        CMakeFiles/MD407-MATRIX.elf.dir/driver/src/stm32f4xx_tim.c.obj (symbol from plugin)
TIM_CCxNCmd                                       CMakeFiles/MD407-MATRIX.elf.dir/driver/src/stm32f4xx_tim.c.obj (symbol from plugin)
TIM_ClearFlag                                     CMakeFiles/MD407-MATRIX.elf.dir/driver/src/stm32f4xx_tim.c.obj (symbol from plugin)
TIM_ClearITPendingBit                             CMakeFiles/MD407-MATRIX.elf.dir/driver/src/stm32f4xx_tim.c.obj (symbol from plugin)
                                                  CMakeFiles/MD407-MATRIX.elf.dir/src/main.c.obj (symbol from plugin)
TIM_ClearOC1Ref                                   CMakeFiles/MD407-MATRIX.elf.dir/driver/src/stm32f4xx_tim.c.obj (symbol from plugin)
TIM_ClearOC2Ref                                   CMakeFiles/MD407-MATRIX.elf.dir/driver/src/stm32f4xx_tim.c.obj (symbol from plugin)
TIM_ClearOC3Ref                                   CMakeFiles/MD407-MATRIX.elf.dir/driver/src/stm32f4xx_tim.c.obj (symbol from plugin)
TIM_ClearOC4Ref                                   CMakeFiles/MD407-MATRIX.elf.dir/driver/src/stm32f4xx_tim.c.obj (symbol from plugin)
TIM_Cmd                                           CMakeFiles/MD407-MATRIX.elf.dir/driver/src/stm32f4xx_tim.c.obj (symbol from plugin)
                                                  CMakeFiles/MD407-MATRIX.elf.dir/src/main.c.obj (symbol from plugin)
                                                  CMakeFiles/MD407-MATRIX.elf.dir/libraries/utils/timer.c.obj (symbol from plugin)
TIM_CounterModeConfig                             CMakeFiles/MD407-MATRIX.elf.dir/driver/src/stm32f4xx_tim.c.obj (symbol from plugin)
TIM_CtrlPWMOutputs                                CMakeFiles/MD407-MATRIX.elf.dir/driver/src/stm32f4xx_tim.c.obj (symbol from plugin)
TIM_DMACmd                                        CMakeFiles/MD407-MATRIX.elf.dir/driver/src/stm32f4xx_tim.c.obj (symbol from plugin)
TIM_DMAConfig                                     CMakeFiles/MD407-MATRIX.elf.dir/driver/src/stm32f4xx_tim.c.obj (symbol from plugin)
TIM_DeInit                                        CMakeFiles/MD407-MATRIX.elf.dir/driver/src/stm32f4xx_tim.c.obj (symbol from plugin)
TIM_ETRClockMode1Config                           CMakeFiles/MD407-MATRIX.elf.dir/driver/src/stm32f4xx_tim.c.obj (symbol from plugin)
TIM_ETRClockMode2Config                           CMakeFiles/MD407-MATRIX.elf.dir/driver/src/stm32f4xx_tim.c.obj (symbol from plugin)
TIM_ETRConfig                                     CMakeFiles/MD407-MATRIX.elf.dir/driver/src/stm32f4xx_tim.c.obj (symbol from plugin)
TIM_EncoderInterfaceConfig                        CMakeFiles/MD407-MATRIX.elf.dir/driver/src/stm32f4xx_tim.c.obj (symbol from plugin)
TIM_ForcedOC1Config                               CMakeFiles/MD407-MATRIX.elf.dir/driver/src/stm32f4xx_tim.c.obj (symbol from plugin)
TIM_ForcedOC2Config                               CMakeFiles/MD407-MATRIX.elf.dir/driver/src/stm32f4xx_tim.c.obj (symbol from plugin)
TIM_ForcedOC3Config                               CMakeFiles/MD407-MATRIX.elf.dir/driver/src/stm32f4xx_tim.c.obj (symbol from plugin)
TIM_ForcedOC4Config                               CMakeFiles/MD407-MATRIX.elf.dir/driver/src/stm32f4xx_tim.c.obj (symbol from plugin)
TIM_GenerateEvent                                 CMakeFiles/MD407-MATRIX.elf.dir/driver/src/stm32f4xx_tim.c.obj (symbol from plugin)
TIM_GetCapture1                                   CMakeFiles/MD407-MATRIX.elf.dir/driver/src/stm32f4xx_tim.c.obj (symbol from plugin)
TIM_GetCapture2                                   CMakeFiles/MD407-MATRIX.elf.dir/driver/src/stm32f4xx_tim.c.obj (symbol from plugin)
TIM_GetCapture3                                   CMakeFiles/MD407-MATRIX.elf.dir/driver/src/stm32f4xx_tim.c.obj (symbol from plugin)
TIM_GetCapture4                                   CMakeFiles/MD407-MATRIX.elf.dir/driver/src/stm32f4xx_tim.c.obj (symbol from plugin)
TIM_GetCounter                                    CMakeFiles/MD407-MATRIX.elf.dir/driver/src/stm32f4xx_tim.c.obj (symbol from plugin)
                                                  CMakeFiles/MD407-MATRIX.elf.dir/libraries/utils/timer.c.obj (symbol from plugin)
TIM_GetFlagStatus                                 CMakeFiles/MD407-MATRIX.elf.dir/driver/src/stm32f4xx_tim.c.obj (symbol from plugin)
TIM_GetITStatus                                   CMakeFiles/MD407-MATRIX.elf.dir/driver/src/stm32f4xx_tim.c.obj (symbol from plugin)
                                                  CMakeFiles/MD407-MATRIX.elf.dir/src/main.c.obj (symbol from plugin)
TIM_GetPrescaler                                  CMakeFiles/MD407-MATRIX.elf.dir/driver/src/stm32f4xx_tim.c.obj (symbol from plugin)
TIM_ICInit                                        CMakeFiles/MD407-MATRIX.elf.dir/driver/src/stm32f4xx_tim.c.obj (symbol from plugin)
TIM_ICStructInit                                  CMakeFiles/MD407-MATRIX.elf.dir/driver/src/stm32f4xx_tim.c.obj (symbol from plugin)
TIM_ITConfig                                      CMakeFiles/MD407-MATRIX.elf.dir/driver/src/stm32f4xx_tim.c.obj (symbol from plugin)
                                                  CMakeFiles/MD407-MATRIX.elf.dir/src/main.c.obj (symbol from plugin)
                                                  CMakeFiles/MD407-MATRIX.elf.dir/libraries/utils/timer.c.obj (symbol from plugin)
TIM_ITRxExternalClockConfig                       CMakeFiles/MD407-MATRIX.elf.dir/driver/src/stm32f4xx_tim.c.obj (symbol from plugin)
TIM_InternalClockConfig                           CMakeFiles/MD407-MATRIX.elf.dir/driver/src/stm32f4xx_tim.c.obj (symbol from plugin)
TIM_OC1FastConfig                                 CMakeFiles/MD407-MATRIX.elf.dir/driver/src/stm32f4xx_tim.c.obj (symbol from plugin)
TIM_OC1Init                                       CMakeFiles/MD407-MATRIX.elf.dir/driver/src/stm32f4xx_tim.c.obj (symbol from plugin)
TIM_OC1NPolarityConfig                            CMakeFiles/MD407-MATRIX.elf.dir/driver/src/stm32f4xx_tim.c.obj (symbol from plugin)
TIM_OC1PolarityConfig                             CMakeFiles/MD407-MATRIX.elf.dir/driver/src/stm32f4xx_tim.c.obj (symbol from plugin)
TIM_OC1PreloadConfig                              CMakeFiles/MD407-MATRIX.elf.dir/driver/src/stm32f4xx_tim.c.obj (symbol from plugin)
TIM_OC2FastConfig                                 CMakeFiles/MD407-MATRIX.elf.dir/driver/src/stm32f4xx_tim.c.obj (symbol from plugin)
TIM_OC2Init                                       CMakeFiles/MD407-MATRIX.elf.dir/driver/src/stm32f4xx_tim.c.obj (symbol from plugin)
TIM_OC2NPolarityConfig                            CMakeFiles/MD407-MATRIX.elf.dir/driver/src/stm32f4xx_tim.c.obj (symbol from plugin)
TIM_OC2PolarityConfig                             CMakeFiles/MD407-MATRIX.elf.dir/driver/src/stm32f4xx_tim.c.obj (symbol from plugin)
TIM_OC2PreloadConfig                              CMakeFiles/MD407-MATRIX.elf.dir/driver/src/stm32f4xx_tim.c.obj (symbol from plugin)
TIM_OC3FastConfig                                 CMakeFiles/MD407-MATRIX.elf.dir/driver/src/stm32f4xx_tim.c.obj (symbol from plugin)
TIM_OC3Init                                       CMakeFiles/MD407-MATRIX.elf.dir/driver/src/stm32f4xx_tim.c.obj (symbol from plugin)
TIM_OC3NPolarityConfig                            CMakeFiles/MD407-MATRIX.elf.dir/driver/src/stm32f4xx_tim.c.obj (symbol from plugin)
TIM_OC3PolarityConfig                             CMakeFiles/MD407-MATRIX.elf.dir/driver/src/stm32f4xx_tim.c.obj (symbol from plugin)
TIM_OC3PreloadConfig                              CMakeFiles/MD407-MATRIX.elf.dir/driver/src/stm32f4xx_tim.c.obj (symbol from plugin)
TIM_OC4FastConfig                                 CMakeFiles/MD407-MATRIX.elf.dir/driver/src/stm32f4xx_tim.c.obj (symbol from plugin)
TIM_OC4Init                                       CMakeFiles/MD407-MATRIX.elf.dir/driver/src/stm32f4xx_tim.c.obj (symbol from plugin)
TIM_OC4PolarityConfig                             CMakeFiles/MD407-MATRIX.elf.dir/driver/src/stm32f4xx_tim.c.obj (symbol from plugin)
TIM_OC4PreloadConfig                              CMakeFiles/MD407-MATRIX.elf.dir/driver/src/stm32f4xx_tim.c.obj (symbol from plugin)
TIM_OCStructInit                                  CMakeFiles/MD407-MATRIX.elf.dir/driver/src/stm32f4xx_tim.c.obj (symbol from plugin)
TIM_PWMIConfig                                    CMakeFiles/MD407-MATRIX.elf.dir/driver/src/stm32f4xx_tim.c.obj (symbol from plugin)
TIM_PrescalerConfig                               CMakeFiles/MD407-MATRIX.elf.dir/driver/src/stm32f4xx_tim.c.obj (symbol from plugin)
TIM_RemapConfig                                   CMakeFiles/MD407-MATRIX.elf.dir/driver/src/stm32f4xx_tim.c.obj (symbol from plugin)
TIM_SelectCCDMA                                   CMakeFiles/MD407-MATRIX.elf.dir/driver/src/stm32f4xx_tim.c.obj (symbol from plugin)
TIM_SelectCOM                                     CMakeFiles/MD407-MATRIX.elf.dir/driver/src/stm32f4xx_tim.c.obj (symbol from plugin)
TIM_SelectHallSensor                              CMakeFiles/MD407-MATRIX.elf.dir/driver/src/stm32f4xx_tim.c.obj (symbol from plugin)
TIM_SelectInputTrigger                            CMakeFiles/MD407-MATRIX.elf.dir/driver/src/stm32f4xx_tim.c.obj (symbol from plugin)
TIM_SelectMasterSlaveMode                         CMakeFiles/MD407-MATRIX.elf.dir/driver/src/stm32f4xx_tim.c.obj (symbol from plugin)
TIM_SelectOCxM                                    CMakeFiles/MD407-MATRIX.elf.dir/driver/src/stm32f4xx_tim.c.obj (symbol from plugin)
TIM_SelectOnePulseMode                            CMakeFiles/MD407-MATRIX.elf.dir/driver/src/stm32f4xx_tim.c.obj (symbol from plugin)
TIM_SelectOutputTrigger                           CMakeFiles/MD407-MATRIX.elf.dir/driver/src/stm32f4xx_tim.c.obj (symbol from plugin)
TIM_SelectSlaveMode                               CMakeFiles/MD407-MATRIX.elf.dir/driver/src/stm32f4xx_tim.c.obj (symbol from plugin)
TIM_SetAutoreload                                 CMakeFiles/MD407-MATRIX.elf.dir/driver/src/stm32f4xx_tim.c.obj (symbol from plugin)
                                                  CMakeFiles/MD407-MATRIX.elf.dir/src/main.c.obj (symbol from plugin)
TIM_SetClockDivision                              CMakeFiles/MD407-MATRIX.elf.dir/driver/src/stm32f4xx_tim.c.obj (symbol from plugin)
TIM_SetCompare1                                   CMakeFiles/MD407-MATRIX.elf.dir/driver/src/stm32f4xx_tim.c.obj (symbol from plugin)
TIM_SetCompare2                                   CMakeFiles/MD407-MATRIX.elf.dir/driver/src/stm32f4xx_tim.c.obj (symbol from plugin)
TIM_SetCompare3                                   CMakeFiles/MD407-MATRIX.elf.dir/driver/src/stm32f4xx_tim.c.obj (symbol from plugin)
TIM_SetCompare4                                   CMakeFiles/MD407-MATRIX.elf.dir/driver/src/stm32f4xx_tim.c.obj (symbol from plugin)
TIM_SetCounter                                    CMakeFiles/MD407-MATRIX.elf.dir/driver/src/stm32f4xx_tim.c.obj (symbol from plugin)
TIM_SetIC1Prescaler                               CMakeFiles/MD407-MATRIX.elf.dir/driver/src/stm32f4xx_tim.c.obj (symbol from plugin)
TIM_SetIC2Prescaler                               CMakeFiles/MD407-MATRIX.elf.dir/driver/src/stm32f4xx_tim.c.obj (symbol from plugin)
TIM_SetIC3Prescaler                               CMakeFiles/MD407-MATRIX.elf.dir/driver/src/stm32f4xx_tim.c.obj (symbol from plugin)
TIM_SetIC4Prescaler                               CMakeFiles/MD407-MATRIX.elf.dir/driver/src/stm32f4xx_tim.c.obj (symbol from plugin)
TIM_TIxExternalClockConfig                        CMakeFiles/MD407-MATRIX.elf.dir/driver/src/stm32f4xx_tim.c.obj (symbol from plugin)
TIM_TimeBaseInit                                  CMakeFiles/MD407-MATRIX.elf.dir/driver/src/stm32f4xx_tim.c.obj (symbol from plugin)
                                                  CMakeFiles/MD407-MATRIX.elf.dir/src/main.c.obj (symbol from plugin)
                                                  CMakeFiles/MD407-MATRIX.elf.dir/libraries/utils/timer.c.obj (symbol from plugin)
TIM_TimeBaseStructInit                            CMakeFiles/MD407-MATRIX.elf.dir/driver/src/stm32f4xx_tim.c.obj (symbol from plugin)
TIM_TimeBaseStructure                             CMakeFiles/MD407-MATRIX.elf.dir/libraries/utils/timer.c.obj (symbol from plugin)
TIM_UpdateDisableConfig                           CMakeFiles/MD407-MATRIX.elf.dir/driver/src/stm32f4xx_tim.c.obj (symbol from plugin)
TIM_UpdateRequestConfig                           CMakeFiles/MD407-MATRIX.elf.dir/driver/src/stm32f4xx_tim.c.obj (symbol from plugin)
UART4_IRQHandler                                  CMakeFiles/MD407-MATRIX.elf.dir/vectors.s.obj
UART5_IRQHandler                                  CMakeFiles/MD407-MATRIX.elf.dir/vectors.s.obj
USART1_IRQHandler                                 CMakeFiles/MD407-MATRIX.elf.dir/vectors.s.obj
USART2_IRQHandler                                 CMakeFiles/MD407-MATRIX.elf.dir/vectors.s.obj
USART3_IRQHandler                                 CMakeFiles/MD407-MATRIX.elf.dir/vectors.s.obj
USART6_IRQHandler                                 CMakeFiles/MD407-MATRIX.elf.dir/vectors.s.obj
USART_ClearFlag                                   CMakeFiles/MD407-MATRIX.elf.dir/driver/src/stm32f4xx_usart.c.obj (symbol from plugin)
USART_ClearITPendingBit                           CMakeFiles/MD407-MATRIX.elf.dir/driver/src/stm32f4xx_usart.c.obj (symbol from plugin)
USART_ClockInit                                   CMakeFiles/MD407-MATRIX.elf.dir/driver/src/stm32f4xx_usart.c.obj (symbol from plugin)
                                                  CMakeFiles/MD407-MATRIX.elf.dir/libraries/utils/usart.c.obj (symbol from plugin)
USART_ClockStructInit                             CMakeFiles/MD407-MATRIX.elf.dir/driver/src/stm32f4xx_usart.c.obj (symbol from plugin)
                                                  CMakeFiles/MD407-MATRIX.elf.dir/libraries/utils/usart.c.obj (symbol from plugin)
USART_Cmd                                         CMakeFiles/MD407-MATRIX.elf.dir/driver/src/stm32f4xx_usart.c.obj (symbol from plugin)
                                                  CMakeFiles/MD407-MATRIX.elf.dir/libraries/utils/usart.c.obj (symbol from plugin)
USART_DMACmd                                      CMakeFiles/MD407-MATRIX.elf.dir/driver/src/stm32f4xx_usart.c.obj (symbol from plugin)
USART_DeInit                                      CMakeFiles/MD407-MATRIX.elf.dir/driver/src/stm32f4xx_usart.c.obj (symbol from plugin)
                                                  CMakeFiles/MD407-MATRIX.elf.dir/libraries/utils/usart.c.obj (symbol from plugin)
USART_GetFlagStatus                               CMakeFiles/MD407-MATRIX.elf.dir/driver/src/stm32f4xx_usart.c.obj (symbol from plugin)
                                                  CMakeFiles/MD407-MATRIX.elf.dir/libraries/utils/usart.c.obj (symbol from plugin)
USART_GetITStatus                                 CMakeFiles/MD407-MATRIX.elf.dir/driver/src/stm32f4xx_usart.c.obj (symbol from plugin)
USART_HalfDuplexCmd                               CMakeFiles/MD407-MATRIX.elf.dir/driver/src/stm32f4xx_usart.c.obj (symbol from plugin)
USART_ITConfig                                    CMakeFiles/MD407-MATRIX.elf.dir/driver/src/stm32f4xx_usart.c.obj (symbol from plugin)
                                                  CMakeFiles/MD407-MATRIX.elf.dir/libraries/utils/usart.c.obj (symbol from plugin)
USART_Init                                        CMakeFiles/MD407-MATRIX.elf.dir/driver/src/stm32f4xx_usart.c.obj (symbol from plugin)
                                                  CMakeFiles/MD407-MATRIX.elf.dir/libraries/utils/usart.c.obj (symbol from plugin)
USART_IrDACmd                                     CMakeFiles/MD407-MATRIX.elf.dir/driver/src/stm32f4xx_usart.c.obj (symbol from plugin)
USART_IrDAConfig                                  CMakeFiles/MD407-MATRIX.elf.dir/driver/src/stm32f4xx_usart.c.obj (symbol from plugin)
USART_LINBreakDetectLengthConfig                  CMakeFiles/MD407-MATRIX.elf.dir/driver/src/stm32f4xx_usart.c.obj (symbol from plugin)
USART_LINCmd                                      CMakeFiles/MD407-MATRIX.elf.dir/driver/src/stm32f4xx_usart.c.obj (symbol from plugin)
USART_OneBitMethodCmd                             CMakeFiles/MD407-MATRIX.elf.dir/driver/src/stm32f4xx_usart.c.obj (symbol from plugin)
USART_OverSampling8Cmd                            CMakeFiles/MD407-MATRIX.elf.dir/driver/src/stm32f4xx_usart.c.obj (symbol from plugin)
USART_ReceiveData                                 CMakeFiles/MD407-MATRIX.elf.dir/driver/src/stm32f4xx_usart.c.obj (symbol from plugin)
USART_ReceiverWakeUpCmd                           CMakeFiles/MD407-MATRIX.elf.dir/driver/src/stm32f4xx_usart.c.obj (symbol from plugin)
USART_SendBreak                                   CMakeFiles/MD407-MATRIX.elf.dir/driver/src/stm32f4xx_usart.c.obj (symbol from plugin)
USART_SendData                                    CMakeFiles/MD407-MATRIX.elf.dir/driver/src/stm32f4xx_usart.c.obj (symbol from plugin)
                                                  CMakeFiles/MD407-MATRIX.elf.dir/libraries/utils/usart.c.obj (symbol from plugin)
USART_SetAddress                                  CMakeFiles/MD407-MATRIX.elf.dir/driver/src/stm32f4xx_usart.c.obj (symbol from plugin)
USART_SetGuardTime                                CMakeFiles/MD407-MATRIX.elf.dir/driver/src/stm32f4xx_usart.c.obj (symbol from plugin)
USART_SetPrescaler                                CMakeFiles/MD407-MATRIX.elf.dir/driver/src/stm32f4xx_usart.c.obj (symbol from plugin)
USART_SmartCardCmd                                CMakeFiles/MD407-MATRIX.elf.dir/driver/src/stm32f4xx_usart.c.obj (symbol from plugin)
USART_SmartCardNACKCmd                            CMakeFiles/MD407-MATRIX.elf.dir/driver/src/stm32f4xx_usart.c.obj (symbol from plugin)
USART_StructInit                                  CMakeFiles/MD407-MATRIX.elf.dir/driver/src/stm32f4xx_usart.c.obj (symbol from plugin)
                                                  CMakeFiles/MD407-MATRIX.elf.dir/libraries/utils/usart.c.obj (symbol from plugin)
USART_WakeUpConfig                                CMakeFiles/MD407-MATRIX.elf.dir/driver/src/stm32f4xx_usart.c.obj (symbol from plugin)
UsageFault_Handler                                CMakeFiles/MD407-MATRIX.elf.dir/vectors.s.obj
WWDG_IRQHandler                                   CMakeFiles/MD407-MATRIX.elf.dir/vectors.s.obj
__adddf3                                          /usr/lib/gcc/arm-none-eabi/13.2.0/thumb/v7e-m+fp/hard/libgcc.a(_arm_addsubdf3.o)
__aeabi_cdcmpeq                                   /usr/lib/gcc/arm-none-eabi/13.2.0/thumb/v7e-m+fp/hard/libgcc.a(_arm_cmpdf2.o)
__aeabi_cdcmple                                   /usr/lib/gcc/arm-none-eabi/13.2.0/thumb/v7e-m+fp/hard/libgcc.a(_arm_cmpdf2.o)
__aeabi_cdrcmple                                  /usr/lib/gcc/arm-none-eabi/13.2.0/thumb/v7e-m+fp/hard/libgcc.a(_arm_cmpdf2.o)
__aeabi_d2iz                                      /usr/lib/gcc/arm-none-eabi/13.2.0/thumb/v7e-m+fp/hard/libgcc.a(_arm_fixdfsi.o)
                                                  /tmp/ccMZqXQe.ltrans0.ltrans.o
__aeabi_d2uiz                                     /usr/lib/gcc/arm-none-eabi/13.2.0/thumb/v7e-m+fp/hard/libgcc.a(_arm_fixunsdfsi.o)
                                                  /tmp/ccMZqXQe.ltrans0.ltrans.o
__aeabi_dadd                                      /usr/lib/gcc/arm-none-eabi/13.2.0/thumb/v7e-m+fp/hard/libgcc.a(_arm_addsubdf3.o)
                                                  /tmp/ccMZqXQe.ltrans0.ltrans.o
__aeabi_dcmpeq                                    /usr/lib/gcc/arm-none-eabi/13.2.0/thumb/v7e-m+fp/hard/libgcc.a(_arm_cmpdf2.o)
                                                  /tmp/ccMZqXQe.ltrans0.ltrans.o
__aeabi_dcmpge                                    /usr/lib/gcc/arm-none-eabi/13.2.0/thumb/v7e-m+fp/hard/libgcc.a(_arm_cmpdf2.o)
                                                  /tmp/ccMZqXQe.ltrans0.ltrans.o
__aeabi_dcmpgt                                    /usr/lib/gcc/arm-none-eabi/13.2.0/thumb/v7e-m+fp/hard/libgcc.a(_arm_cmpdf2.o)
                                                  /tmp/ccMZqXQe.ltrans0.ltrans.o
__aeabi_dcmple                                    /usr/lib/gcc/arm-none-eabi/13.2.0/thumb/v7e-m+fp/hard/libgcc.a(_arm_cmpdf2.o)
                                                  /tmp/ccMZqXQe.ltrans0.ltrans.o
__aeabi_dcmplt                                    /usr/lib/gcc/arm-none-eabi/13.2.0/thumb/v7e-m+fp/hard/libgcc.a(_arm_cmpdf2.o)
                                                  /tmp/ccMZqXQe.ltrans0.ltrans.o
__aeabi_ddiv                                      /usr/lib/gcc/arm-none-eabi/13.2.0/thumb/v7e-m+fp/hard/libgcc.a(_arm_muldivdf3.o)
                                                  /tmp/ccMZqXQe.ltrans0.ltrans.o
__aeabi_dmul                                      /usr/lib/gcc/arm-none-eabi/13.2.0/thumb/v7e-m+fp/hard/libgcc.a(_arm_muldivdf3.o)
                                                  /usr/lib/gcc/arm-none-eabi/13.2.0/thumb/v7e-m+fp/hard/libgcc.a(_arm_muldf3.o)
                                                  /tmp/ccMZqXQe.ltrans0.ltrans.o
__aeabi_drsub                                     /usr/lib/gcc/arm-none-eabi/13.2.0/thumb/v7e-m+fp/hard/libgcc.a(_arm_addsubdf3.o)
__aeabi_dsub                                      /usr/lib/gcc/arm-none-eabi/13.2.0/thumb/v7e-m+fp/hard/libgcc.a(_arm_addsubdf3.o)
                                                  /tmp/ccMZqXQe.ltrans0.ltrans.o
__aeabi_f2d                                       /usr/lib/gcc/arm-none-eabi/13.2.0/thumb/v7e-m+fp/hard/libgcc.a(_arm_addsubdf3.o)
__aeabi_i2d                                       /usr/lib/gcc/arm-none-eabi/13.2.0/thumb/v7e-m+fp/hard/libgcc.a(_arm_addsubdf3.o)
                                                  /tmp/ccMZqXQe.ltrans0.ltrans.o
__aeabi_idiv0                                     /usr/lib/gcc/arm-none-eabi/13.2.0/thumb/v7e-m+fp/hard/libgcc.a(_dvmd_tls.o)
__aeabi_l2d                                       /usr/lib/gcc/arm-none-eabi/13.2.0/thumb/v7e-m+fp/hard/libgcc.a(_arm_addsubdf3.o)
__aeabi_ldiv0                                     /usr/lib/gcc/arm-none-eabi/13.2.0/thumb/v7e-m+fp/hard/libgcc.a(_dvmd_tls.o)
                                                  /usr/lib/gcc/arm-none-eabi/13.2.0/thumb/v7e-m+fp/hard/libgcc.a(_aeabi_uldivmod.o)
__aeabi_ui2d                                      /usr/lib/gcc/arm-none-eabi/13.2.0/thumb/v7e-m+fp/hard/libgcc.a(_arm_addsubdf3.o)
                                                  /tmp/ccMZqXQe.ltrans0.ltrans.o
__aeabi_ul2d                                      /usr/lib/gcc/arm-none-eabi/13.2.0/thumb/v7e-m+fp/hard/libgcc.a(_arm_addsubdf3.o)
__aeabi_uldivmod                                  /usr/lib/gcc/arm-none-eabi/13.2.0/thumb/v7e-m+fp/hard/libgcc.a(_aeabi_uldivmod.o)
                                                  /tmp/ccMZqXQe.ltrans0.ltrans.o
__atexit                                          /usr/lib/gcc/arm-none-eabi/13.2.0/../../../../arm-none-eabi/lib/thumb/v7e-m+fp/hard/libc_nano.a(libc_a-__call_atexit.o)
                                                  /usr/lib/gcc/arm-none-eabi/13.2.0/../../../../arm-none-eabi/lib/thumb/v7e-m+fp/hard/libc_nano.a(libc_a-__atexit.o)
__atexit0                                         /usr/lib/gcc/arm-none-eabi/13.2.0/../../../../arm-none-eabi/lib/thumb/v7e-m+fp/hard/libc_nano.a(libc_a-__atexit.o)
__atexit_dummy                                    /usr/lib/gcc/arm-none-eabi/13.2.0/../../../../arm-none-eabi/lib/thumb/v7e-m+fp/hard/libc_nano.a(libc_a-__atexit.o)
__atexit_recursive_mutex                          /usr/lib/gcc/arm-none-eabi/13.2.0/../../../../arm-none-eabi/lib/thumb/v7e-m+fp/hard/libc_nano.a(libc_a-__call_atexit.o)
                                                  /usr/lib/gcc/arm-none-eabi/13.2.0/../../../../arm-none-eabi/lib/thumb/v7e-m+fp/hard/libc_nano.a(libc_a-__atexit.o)
__bss_end__                                       /usr/lib/gcc/arm-none-eabi/13.2.0/../../../../arm-none-eabi/lib/thumb/v7e-m+fp/hard/crt0.o
__bss_start__                                     /usr/lib/gcc/arm-none-eabi/13.2.0/../../../../arm-none-eabi/lib/thumb/v7e-m+fp/hard/crt0.o
__call_exitprocs                                  /usr/lib/gcc/arm-none-eabi/13.2.0/../../../../arm-none-eabi/lib/thumb/v7e-m+fp/hard/libc_nano.a(libc_a-__call_atexit.o)
                                                  /usr/lib/gcc/arm-none-eabi/13.2.0/../../../../arm-none-eabi/lib/thumb/v7e-m+fp/hard/libc_nano.a(libc_a-__atexit.o)
                                                  /usr/lib/gcc/arm-none-eabi/13.2.0/../../../../arm-none-eabi/lib/thumb/v7e-m+fp/hard/libc_nano.a(libc_a-exit.o)
__cmpdf2                                          /usr/lib/gcc/arm-none-eabi/13.2.0/thumb/v7e-m+fp/hard/libgcc.a(_arm_cmpdf2.o)
__deregister_frame_info                           /usr/lib/gcc/arm-none-eabi/13.2.0/thumb/v7e-m+fp/hard/crtbegin.o
__divdf3                                          /usr/lib/gcc/arm-none-eabi/13.2.0/thumb/v7e-m+fp/hard/libgcc.a(_arm_muldivdf3.o)
__dso_handle                                      /usr/lib/gcc/arm-none-eabi/13.2.0/thumb/v7e-m+fp/hard/crtbegin.o
__eqdf2                                           /usr/lib/gcc/arm-none-eabi/13.2.0/thumb/v7e-m+fp/hard/libgcc.a(_arm_cmpdf2.o)
__extendsfdf2                                     /usr/lib/gcc/arm-none-eabi/13.2.0/thumb/v7e-m+fp/hard/libgcc.a(_arm_addsubdf3.o)
__fini_array_end                                  /usr/lib/gcc/arm-none-eabi/13.2.0/../../../../arm-none-eabi/lib/thumb/v7e-m+fp/hard/libc_nano.a(libc_a-fini.o)
__fini_array_start                                /usr/lib/gcc/arm-none-eabi/13.2.0/../../../../arm-none-eabi/lib/thumb/v7e-m+fp/hard/libc_nano.a(libc_a-fini.o)
__fixdfsi                                         /usr/lib/gcc/arm-none-eabi/13.2.0/thumb/v7e-m+fp/hard/libgcc.a(_arm_fixdfsi.o)
__fixunsdfsi                                      /usr/lib/gcc/arm-none-eabi/13.2.0/thumb/v7e-m+fp/hard/libgcc.a(_arm_fixunsdfsi.o)
__floatdidf                                       /usr/lib/gcc/arm-none-eabi/13.2.0/thumb/v7e-m+fp/hard/libgcc.a(_arm_addsubdf3.o)
__floatsidf                                       /usr/lib/gcc/arm-none-eabi/13.2.0/thumb/v7e-m+fp/hard/libgcc.a(_arm_addsubdf3.o)
__floatundidf                                     /usr/lib/gcc/arm-none-eabi/13.2.0/thumb/v7e-m+fp/hard/libgcc.a(_arm_addsubdf3.o)
__floatunsidf                                     /usr/lib/gcc/arm-none-eabi/13.2.0/thumb/v7e-m+fp/hard/libgcc.a(_arm_addsubdf3.o)
__fp_lock_all                                     /usr/lib/gcc/arm-none-eabi/13.2.0/../../../../arm-none-eabi/lib/thumb/v7e-m+fp/hard/libc_nano.a(libc_a-findfp.o)
__fp_unlock_all                                   /usr/lib/gcc/arm-none-eabi/13.2.0/../../../../arm-none-eabi/lib/thumb/v7e-m+fp/hard/libc_nano.a(libc_a-findfp.o)
__gedf2                                           /usr/lib/gcc/arm-none-eabi/13.2.0/thumb/v7e-m+fp/hard/libgcc.a(_arm_cmpdf2.o)
__gtdf2                                           /usr/lib/gcc/arm-none-eabi/13.2.0/thumb/v7e-m+fp/hard/libgcc.a(_arm_cmpdf2.o)
__init_array_end                                  /usr/lib/gcc/arm-none-eabi/13.2.0/../../../../arm-none-eabi/lib/thumb/v7e-m+fp/hard/libc_nano.a(libc_a-init.o)
__init_array_start                                /usr/lib/gcc/arm-none-eabi/13.2.0/../../../../arm-none-eabi/lib/thumb/v7e-m+fp/hard/libc_nano.a(libc_a-init.o)
__ledf2                                           /usr/lib/gcc/arm-none-eabi/13.2.0/thumb/v7e-m+fp/hard/libgcc.a(_arm_cmpdf2.o)
__libc_fini_array                                 /usr/lib/gcc/arm-none-eabi/13.2.0/../../../../arm-none-eabi/lib/thumb/v7e-m+fp/hard/libc_nano.a(libc_a-fini.o)
                                                  /usr/lib/gcc/arm-none-eabi/13.2.0/../../../../arm-none-eabi/lib/thumb/v7e-m+fp/hard/crt0.o
__libc_init_array                                 /usr/lib/gcc/arm-none-eabi/13.2.0/../../../../arm-none-eabi/lib/thumb/v7e-m+fp/hard/libc_nano.a(libc_a-init.o)
                                                  CMakeFiles/MD407-MATRIX.elf.dir/vectors.s.obj
                                                  /usr/lib/gcc/arm-none-eabi/13.2.0/../../../../arm-none-eabi/lib/thumb/v7e-m+fp/hard/crt0.o
__lock___arc4random_mutex                         /usr/lib/gcc/arm-none-eabi/13.2.0/../../../../arm-none-eabi/lib/thumb/v7e-m+fp/hard/libc_nano.a(libc_a-lock.o)
__lock___at_quick_exit_mutex                      /usr/lib/gcc/arm-none-eabi/13.2.0/../../../../arm-none-eabi/lib/thumb/v7e-m+fp/hard/libc_nano.a(libc_a-lock.o)
__lock___atexit_recursive_mutex                   /usr/lib/gcc/arm-none-eabi/13.2.0/../../../../arm-none-eabi/lib/thumb/v7e-m+fp/hard/libc_nano.a(libc_a-lock.o)
                                                  /usr/lib/gcc/arm-none-eabi/13.2.0/../../../../arm-none-eabi/lib/thumb/v7e-m+fp/hard/libc_nano.a(libc_a-__call_atexit.o)
__lock___dd_hash_mutex                            /usr/lib/gcc/arm-none-eabi/13.2.0/../../../../arm-none-eabi/lib/thumb/v7e-m+fp/hard/libc_nano.a(libc_a-lock.o)
__lock___env_recursive_mutex                      /usr/lib/gcc/arm-none-eabi/13.2.0/../../../../arm-none-eabi/lib/thumb/v7e-m+fp/hard/libc_nano.a(libc_a-lock.o)
__lock___malloc_recursive_mutex                   /usr/lib/gcc/arm-none-eabi/13.2.0/../../../../arm-none-eabi/lib/thumb/v7e-m+fp/hard/libc_nano.a(libc_a-lock.o)
                                                  /usr/lib/gcc/arm-none-eabi/13.2.0/../../../../arm-none-eabi/lib/thumb/v7e-m+fp/hard/libc_nano.a(libc_a-mlock.o)
__lock___sfp_recursive_mutex                      /usr/lib/gcc/arm-none-eabi/13.2.0/../../../../arm-none-eabi/lib/thumb/v7e-m+fp/hard/libc_nano.a(libc_a-lock.o)
                                                  /usr/lib/gcc/arm-none-eabi/13.2.0/../../../../arm-none-eabi/lib/thumb/v7e-m+fp/hard/libc_nano.a(libc_a-findfp.o)
__lock___tz_mutex                                 /usr/lib/gcc/arm-none-eabi/13.2.0/../../../../arm-none-eabi/lib/thumb/v7e-m+fp/hard/libc_nano.a(libc_a-lock.o)
__ltdf2                                           /usr/lib/gcc/arm-none-eabi/13.2.0/thumb/v7e-m+fp/hard/libgcc.a(_arm_cmpdf2.o)
__malloc_free_list                                /usr/lib/gcc/arm-none-eabi/13.2.0/../../../../arm-none-eabi/lib/thumb/v7e-m+fp/hard/libc_nano.a(libc_a-mallocr.o)
                                                  /usr/lib/gcc/arm-none-eabi/13.2.0/../../../../arm-none-eabi/lib/thumb/v7e-m+fp/hard/libc_nano.a(libc_a-freer.o)
__malloc_lock                                     /usr/lib/gcc/arm-none-eabi/13.2.0/../../../../arm-none-eabi/lib/thumb/v7e-m+fp/hard/libc_nano.a(libc_a-mlock.o)
                                                  /usr/lib/gcc/arm-none-eabi/13.2.0/../../../../arm-none-eabi/lib/thumb/v7e-m+fp/hard/libc_nano.a(libc_a-mallocr.o)
                                                  /usr/lib/gcc/arm-none-eabi/13.2.0/../../../../arm-none-eabi/lib/thumb/v7e-m+fp/hard/libc_nano.a(libc_a-freer.o)
__malloc_sbrk_start                               /usr/lib/gcc/arm-none-eabi/13.2.0/../../../../arm-none-eabi/lib/thumb/v7e-m+fp/hard/libc_nano.a(libc_a-mallocr.o)
__malloc_unlock                                   /usr/lib/gcc/arm-none-eabi/13.2.0/../../../../arm-none-eabi/lib/thumb/v7e-m+fp/hard/libc_nano.a(libc_a-mlock.o)
                                                  /usr/lib/gcc/arm-none-eabi/13.2.0/../../../../arm-none-eabi/lib/thumb/v7e-m+fp/hard/libc_nano.a(libc_a-mallocr.o)
                                                  /usr/lib/gcc/arm-none-eabi/13.2.0/../../../../arm-none-eabi/lib/thumb/v7e-m+fp/hard/libc_nano.a(libc_a-freer.o)
__muldf3                                          /usr/lib/gcc/arm-none-eabi/13.2.0/thumb/v7e-m+fp/hard/libgcc.a(_arm_muldivdf3.o)
                                                  /usr/lib/gcc/arm-none-eabi/13.2.0/thumb/v7e-m+fp/hard/libgcc.a(_arm_muldf3.o)
__nedf2                                           /usr/lib/gcc/arm-none-eabi/13.2.0/thumb/v7e-m+fp/hard/libgcc.a(_arm_cmpdf2.o)
__on_exit_args                                    /usr/lib/gcc/arm-none-eabi/13.2.0/../../../../arm-none-eabi/lib/thumb/v7e-m+fp/hard/libc_nano.a(libc_a-__atexit.o)
__preinit_array_end                               /usr/lib/gcc/arm-none-eabi/13.2.0/../../../../arm-none-eabi/lib/thumb/v7e-m+fp/hard/libc_nano.a(libc_a-init.o)
__preinit_array_start                             /usr/lib/gcc/arm-none-eabi/13.2.0/../../../../arm-none-eabi/lib/thumb/v7e-m+fp/hard/libc_nano.a(libc_a-init.o)
__register_exitproc                               /usr/lib/gcc/arm-none-eabi/13.2.0/../../../../arm-none-eabi/lib/thumb/v7e-m+fp/hard/libc_nano.a(libc_a-__atexit.o)
                                                  /usr/lib/gcc/arm-none-eabi/13.2.0/../../../../arm-none-eabi/lib/thumb/v7e-m+fp/hard/libc_nano.a(libc_a-atexit.o)
__register_frame_info                             /usr/lib/gcc/arm-none-eabi/13.2.0/thumb/v7e-m+fp/hard/crtbegin.o
__retarget_lock_acquire                           /usr/lib/gcc/arm-none-eabi/13.2.0/../../../../arm-none-eabi/lib/thumb/v7e-m+fp/hard/libc_nano.a(libc_a-lock.o)
__retarget_lock_acquire_recursive                 /usr/lib/gcc/arm-none-eabi/13.2.0/../../../../arm-none-eabi/lib/thumb/v7e-m+fp/hard/libc_nano.a(libc_a-lock.o)
                                                  /usr/lib/gcc/arm-none-eabi/13.2.0/../../../../arm-none-eabi/lib/thumb/v7e-m+fp/hard/libc_nano.a(libc_a-fflush.o)
                                                  /usr/lib/gcc/arm-none-eabi/13.2.0/../../../../arm-none-eabi/lib/thumb/v7e-m+fp/hard/libc_nano.a(libc_a-mlock.o)
                                                  /usr/lib/gcc/arm-none-eabi/13.2.0/../../../../arm-none-eabi/lib/thumb/v7e-m+fp/hard/libc_nano.a(libc_a-__call_atexit.o)
                                                  /usr/lib/gcc/arm-none-eabi/13.2.0/../../../../arm-none-eabi/lib/thumb/v7e-m+fp/hard/libc_nano.a(libc_a-__atexit.o)
                                                  /usr/lib/gcc/arm-none-eabi/13.2.0/../../../../arm-none-eabi/lib/thumb/v7e-m+fp/hard/libc_nano.a(libc_a-findfp.o)
__retarget_lock_close                             /usr/lib/gcc/arm-none-eabi/13.2.0/../../../../arm-none-eabi/lib/thumb/v7e-m+fp/hard/libc_nano.a(libc_a-lock.o)
__retarget_lock_close_recursive                   /usr/lib/gcc/arm-none-eabi/13.2.0/../../../../arm-none-eabi/lib/thumb/v7e-m+fp/hard/libc_nano.a(libc_a-lock.o)
__retarget_lock_init                              /usr/lib/gcc/arm-none-eabi/13.2.0/../../../../arm-none-eabi/lib/thumb/v7e-m+fp/hard/libc_nano.a(libc_a-lock.o)
__retarget_lock_init_recursive                    /usr/lib/gcc/arm-none-eabi/13.2.0/../../../../arm-none-eabi/lib/thumb/v7e-m+fp/hard/libc_nano.a(libc_a-lock.o)
                                                  /usr/lib/gcc/arm-none-eabi/13.2.0/../../../../arm-none-eabi/lib/thumb/v7e-m+fp/hard/libc_nano.a(libc_a-findfp.o)
__retarget_lock_release                           /usr/lib/gcc/arm-none-eabi/13.2.0/../../../../arm-none-eabi/lib/thumb/v7e-m+fp/hard/libc_nano.a(libc_a-lock.o)
__retarget_lock_release_recursive                 /usr/lib/gcc/arm-none-eabi/13.2.0/../../../../arm-none-eabi/lib/thumb/v7e-m+fp/hard/libc_nano.a(libc_a-lock.o)
                                                  /usr/lib/gcc/arm-none-eabi/13.2.0/../../../../arm-none-eabi/lib/thumb/v7e-m+fp/hard/libc_nano.a(libc_a-fflush.o)
                                                  /usr/lib/gcc/arm-none-eabi/13.2.0/../../../../arm-none-eabi/lib/thumb/v7e-m+fp/hard/libc_nano.a(libc_a-mlock.o)
                                                  /usr/lib/gcc/arm-none-eabi/13.2.0/../../../../arm-none-eabi/lib/thumb/v7e-m+fp/hard/libc_nano.a(libc_a-__call_atexit.o)
                                                  /usr/lib/gcc/arm-none-eabi/13.2.0/../../../../arm-none-eabi/lib/thumb/v7e-m+fp/hard/libc_nano.a(libc_a-__atexit.o)
                                                  /usr/lib/gcc/arm-none-eabi/13.2.0/../../../../arm-none-eabi/lib/thumb/v7e-m+fp/hard/libc_nano.a(libc_a-findfp.o)
__retarget_lock_try_acquire                       /usr/lib/gcc/arm-none-eabi/13.2.0/../../../../arm-none-eabi/lib/thumb/v7e-m+fp/hard/libc_nano.a(libc_a-lock.o)
__retarget_lock_try_acquire_recursive             /usr/lib/gcc/arm-none-eabi/13.2.0/../../../../arm-none-eabi/lib/thumb/v7e-m+fp/hard/libc_nano.a(libc_a-lock.o)
__sclose                                          /usr/lib/gcc/arm-none-eabi/13.2.0/../../../../arm-none-eabi/lib/thumb/v7e-m+fp/hard/libc_nano.a(libc_a-stdio.o)
                                                  /usr/lib/gcc/arm-none-eabi/13.2.0/../../../../arm-none-eabi/lib/thumb/v7e-m+fp/hard/libc_nano.a(libc_a-findfp.o)
__seofread                                        /usr/lib/gcc/arm-none-eabi/13.2.0/../../../../arm-none-eabi/lib/thumb/v7e-m+fp/hard/libc_nano.a(libc_a-stdio.o)
__sf                                              /usr/lib/gcc/arm-none-eabi/13.2.0/../../../../arm-none-eabi/lib/thumb/v7e-m+fp/hard/libc_nano.a(libc_a-findfp.o)
                                                  /usr/lib/gcc/arm-none-eabi/13.2.0/../../../../arm-none-eabi/lib/thumb/v7e-m+fp/hard/libc_nano.a(libc_a-impure.o)
__sflush_r                                        /usr/lib/gcc/arm-none-eabi/13.2.0/../../../../arm-none-eabi/lib/thumb/v7e-m+fp/hard/libc_nano.a(libc_a-fflush.o)
__sfp                                             /usr/lib/gcc/arm-none-eabi/13.2.0/../../../../arm-none-eabi/lib/thumb/v7e-m+fp/hard/libc_nano.a(libc_a-findfp.o)
__sfp_lock_acquire                                /usr/lib/gcc/arm-none-eabi/13.2.0/../../../../arm-none-eabi/lib/thumb/v7e-m+fp/hard/libc_nano.a(libc_a-findfp.o)
__sfp_lock_release                                /usr/lib/gcc/arm-none-eabi/13.2.0/../../../../arm-none-eabi/lib/thumb/v7e-m+fp/hard/libc_nano.a(libc_a-findfp.o)
__sglue                                           /usr/lib/gcc/arm-none-eabi/13.2.0/../../../../arm-none-eabi/lib/thumb/v7e-m+fp/hard/libc_nano.a(libc_a-findfp.o)
                                                  /usr/lib/gcc/arm-none-eabi/13.2.0/../../../../arm-none-eabi/lib/thumb/v7e-m+fp/hard/libc_nano.a(libc_a-fflush.o)
__sinit                                           /usr/lib/gcc/arm-none-eabi/13.2.0/../../../../arm-none-eabi/lib/thumb/v7e-m+fp/hard/libc_nano.a(libc_a-findfp.o)
                                                  /usr/lib/gcc/arm-none-eabi/13.2.0/../../../../arm-none-eabi/lib/thumb/v7e-m+fp/hard/libc_nano.a(libc_a-fflush.o)
__sread                                           /usr/lib/gcc/arm-none-eabi/13.2.0/../../../../arm-none-eabi/lib/thumb/v7e-m+fp/hard/libc_nano.a(libc_a-stdio.o)
                                                  /usr/lib/gcc/arm-none-eabi/13.2.0/../../../../arm-none-eabi/lib/thumb/v7e-m+fp/hard/libc_nano.a(libc_a-findfp.o)
__sseek                                           /usr/lib/gcc/arm-none-eabi/13.2.0/../../../../arm-none-eabi/lib/thumb/v7e-m+fp/hard/libc_nano.a(libc_a-stdio.o)
                                                  /usr/lib/gcc/arm-none-eabi/13.2.0/../../../../arm-none-eabi/lib/thumb/v7e-m+fp/hard/libc_nano.a(libc_a-findfp.o)
__stack                                           /usr/lib/gcc/arm-none-eabi/13.2.0/../../../../arm-none-eabi/lib/thumb/v7e-m+fp/hard/crt0.o
__stdio_exit_handler                              /usr/lib/gcc/arm-none-eabi/13.2.0/../../../../arm-none-eabi/lib/thumb/v7e-m+fp/hard/libc_nano.a(libc_a-findfp.o)
                                                  /usr/lib/gcc/arm-none-eabi/13.2.0/../../../../arm-none-eabi/lib/thumb/v7e-m+fp/hard/libc_nano.a(libc_a-exit.o)
__subdf3                                          /usr/lib/gcc/arm-none-eabi/13.2.0/thumb/v7e-m+fp/hard/libgcc.a(_arm_addsubdf3.o)
__swrite                                          /usr/lib/gcc/arm-none-eabi/13.2.0/../../../../arm-none-eabi/lib/thumb/v7e-m+fp/hard/libc_nano.a(libc_a-stdio.o)
                                                  /usr/lib/gcc/arm-none-eabi/13.2.0/../../../../arm-none-eabi/lib/thumb/v7e-m+fp/hard/libc_nano.a(libc_a-findfp.o)
__udivmoddi4                                      /usr/lib/gcc/arm-none-eabi/13.2.0/thumb/v7e-m+fp/hard/libgcc.a(_udivmoddi4.o)
                                                  /usr/lib/gcc/arm-none-eabi/13.2.0/thumb/v7e-m+fp/hard/libgcc.a(_aeabi_uldivmod.o)
_close                                            /usr/lib/gcc/arm-none-eabi/13.2.0/../../../../arm-none-eabi/lib/thumb/v7e-m+fp/hard/libnosys.a(close.o)
                                                  /usr/lib/gcc/arm-none-eabi/13.2.0/../../../../arm-none-eabi/lib/thumb/v7e-m+fp/hard/libc_nano.a(libc_a-closer.o)
_close_r                                          /usr/lib/gcc/arm-none-eabi/13.2.0/../../../../arm-none-eabi/lib/thumb/v7e-m+fp/hard/libc_nano.a(libc_a-closer.o)
                                                  /usr/lib/gcc/arm-none-eabi/13.2.0/../../../../arm-none-eabi/lib/thumb/v7e-m+fp/hard/libc_nano.a(libc_a-stdio.o)
_ebss                                             /tmp/ccMZqXQe.ltrans0.ltrans.o
                                                  CMakeFiles/MD407-MATRIX.elf.dir/vectors.s.obj
_edata                                            CMakeFiles/MD407-MATRIX.elf.dir/vectors.s.obj
_estack                                           CMakeFiles/MD407-MATRIX.elf.dir/vectors.s.obj
_exit                                             /usr/lib/gcc/arm-none-eabi/13.2.0/../../../../arm-none-eabi/lib/thumb/v7e-m+fp/hard/libnosys.a(_exit.o)
                                                  /usr/lib/gcc/arm-none-eabi/13.2.0/../../../../arm-none-eabi/lib/thumb/v7e-m+fp/hard/libc_nano.a(libc_a-exit.o)
_fflush_r                                         /usr/lib/gcc/arm-none-eabi/13.2.0/../../../../arm-none-eabi/lib/thumb/v7e-m+fp/hard/libc_nano.a(libc_a-fflush.o)
                                                  /usr/lib/gcc/arm-none-eabi/13.2.0/../../../../arm-none-eabi/lib/thumb/v7e-m+fp/hard/libc_nano.a(libc_a-findfp.o)
_fini                                             /usr/lib/gcc/arm-none-eabi/13.2.0/thumb/v7e-m+fp/hard/crti.o
                                                  /usr/lib/gcc/arm-none-eabi/13.2.0/../../../../arm-none-eabi/lib/thumb/v7e-m+fp/hard/libc_nano.a(libc_a-fini.o)
_free_r                                           /usr/lib/gcc/arm-none-eabi/13.2.0/../../../../arm-none-eabi/lib/thumb/v7e-m+fp/hard/libc_nano.a(libc_a-freer.o)
                                                  /usr/lib/gcc/arm-none-eabi/13.2.0/../../../../arm-none-eabi/lib/thumb/v7e-m+fp/hard/libc_nano.a(libc_a-fflush.o)
                                                  /usr/lib/gcc/arm-none-eabi/13.2.0/../../../../arm-none-eabi/lib/thumb/v7e-m+fp/hard/libc_nano.a(libc_a-reent.o)
_fwalk_sglue                                      /usr/lib/gcc/arm-none-eabi/13.2.0/../../../../arm-none-eabi/lib/thumb/v7e-m+fp/hard/libc_nano.a(libc_a-fwalk.o)
                                                  /usr/lib/gcc/arm-none-eabi/13.2.0/../../../../arm-none-eabi/lib/thumb/v7e-m+fp/hard/libc_nano.a(libc_a-fflush.o)
                                                  /usr/lib/gcc/arm-none-eabi/13.2.0/../../../../arm-none-eabi/lib/thumb/v7e-m+fp/hard/libc_nano.a(libc_a-findfp.o)
_impure_data                                      /usr/lib/gcc/arm-none-eabi/13.2.0/../../../../arm-none-eabi/lib/thumb/v7e-m+fp/hard/libc_nano.a(libc_a-impure.o)
                                                  /usr/lib/gcc/arm-none-eabi/13.2.0/../../../../arm-none-eabi/lib/thumb/v7e-m+fp/hard/libc_nano.a(libc_a-fflush.o)
                                                  /usr/lib/gcc/arm-none-eabi/13.2.0/../../../../arm-none-eabi/lib/thumb/v7e-m+fp/hard/libc_nano.a(libc_a-findfp.o)
_impure_ptr                                       /usr/lib/gcc/arm-none-eabi/13.2.0/../../../../arm-none-eabi/lib/thumb/v7e-m+fp/hard/libc_nano.a(libc_a-impure.o)
                                                  /usr/lib/gcc/arm-none-eabi/13.2.0/../../../../arm-none-eabi/lib/thumb/v7e-m+fp/hard/libc_nano.a(libc_a-fflush.o)
                                                  /usr/lib/gcc/arm-none-eabi/13.2.0/../../../../arm-none-eabi/lib/thumb/v7e-m+fp/hard/libc_nano.a(libc_a-reent.o)
_init                                             /usr/lib/gcc/arm-none-eabi/13.2.0/thumb/v7e-m+fp/hard/crti.o
                                                  /usr/lib/gcc/arm-none-eabi/13.2.0/../../../../arm-none-eabi/lib/thumb/v7e-m+fp/hard/libc_nano.a(libc_a-init.o)
_lseek                                            /usr/lib/gcc/arm-none-eabi/13.2.0/../../../../arm-none-eabi/lib/thumb/v7e-m+fp/hard/libnosys.a(lseek.o)
                                                  /usr/lib/gcc/arm-none-eabi/13.2.0/../../../../arm-none-eabi/lib/thumb/v7e-m+fp/hard/libc_nano.a(libc_a-lseekr.o)
_lseek_r                                          /usr/lib/gcc/arm-none-eabi/13.2.0/../../../../arm-none-eabi/lib/thumb/v7e-m+fp/hard/libc_nano.a(libc_a-lseekr.o)
                                                  /usr/lib/gcc/arm-none-eabi/13.2.0/../../../../arm-none-eabi/lib/thumb/v7e-m+fp/hard/libc_nano.a(libc_a-stdio.o)
_mainCRTStartup                                   /usr/lib/gcc/arm-none-eabi/13.2.0/../../../../arm-none-eabi/lib/thumb/v7e-m+fp/hard/crt0.o
_malloc_r                                         /usr/lib/gcc/arm-none-eabi/13.2.0/../../../../arm-none-eabi/lib/thumb/v7e-m+fp/hard/libc_nano.a(libc_a-mallocr.o)
                                                  /usr/lib/gcc/arm-none-eabi/13.2.0/../../../../arm-none-eabi/lib/thumb/v7e-m+fp/hard/libc_nano.a(libc_a-findfp.o)
_putchar                                          CMakeFiles/MD407-MATRIX.elf.dir/libraries/utils/usart.c.obj (symbol from plugin)
                                                  CMakeFiles/MD407-MATRIX.elf.dir/libraries/utils/printf.c.obj (symbol from plugin)
_read                                             /usr/lib/gcc/arm-none-eabi/13.2.0/../../../../arm-none-eabi/lib/thumb/v7e-m+fp/hard/libnosys.a(read.o)
                                                  /usr/lib/gcc/arm-none-eabi/13.2.0/../../../../arm-none-eabi/lib/thumb/v7e-m+fp/hard/libc_nano.a(libc_a-readr.o)
_read_r                                           /usr/lib/gcc/arm-none-eabi/13.2.0/../../../../arm-none-eabi/lib/thumb/v7e-m+fp/hard/libc_nano.a(libc_a-readr.o)
                                                  /usr/lib/gcc/arm-none-eabi/13.2.0/../../../../arm-none-eabi/lib/thumb/v7e-m+fp/hard/libc_nano.a(libc_a-stdio.o)
_reclaim_reent                                    /usr/lib/gcc/arm-none-eabi/13.2.0/../../../../arm-none-eabi/lib/thumb/v7e-m+fp/hard/libc_nano.a(libc_a-reent.o)
_sbrk                                             /usr/lib/gcc/arm-none-eabi/13.2.0/../../../../arm-none-eabi/lib/thumb/v7e-m+fp/hard/libnosys.a(sbrk.o)
                                                  /usr/lib/gcc/arm-none-eabi/13.2.0/../../../../arm-none-eabi/lib/thumb/v7e-m+fp/hard/libc_nano.a(libc_a-sbrkr.o)
_sbrk_r                                           /usr/lib/gcc/arm-none-eabi/13.2.0/../../../../arm-none-eabi/lib/thumb/v7e-m+fp/hard/libc_nano.a(libc_a-sbrkr.o)
                                                  /usr/lib/gcc/arm-none-eabi/13.2.0/../../../../arm-none-eabi/lib/thumb/v7e-m+fp/hard/libc_nano.a(libc_a-mallocr.o)
_sbss                                             /tmp/ccMZqXQe.ltrans0.ltrans.o
                                                  CMakeFiles/MD407-MATRIX.elf.dir/vectors.s.obj
_sdata                                            CMakeFiles/MD407-MATRIX.elf.dir/vectors.s.obj
_sidata                                           CMakeFiles/MD407-MATRIX.elf.dir/vectors.s.obj
_stack_init                                       /usr/lib/gcc/arm-none-eabi/13.2.0/../../../../arm-none-eabi/lib/thumb/v7e-m+fp/hard/crt0.o
_start                                            /usr/lib/gcc/arm-none-eabi/13.2.0/../../../../arm-none-eabi/lib/thumb/v7e-m+fp/hard/crt0.o
_write                                            /usr/lib/gcc/arm-none-eabi/13.2.0/../../../../arm-none-eabi/lib/thumb/v7e-m+fp/hard/libnosys.a(write.o)
                                                  /usr/lib/gcc/arm-none-eabi/13.2.0/../../../../arm-none-eabi/lib/thumb/v7e-m+fp/hard/libc_nano.a(libc_a-writer.o)
_write_r                                          /usr/lib/gcc/arm-none-eabi/13.2.0/../../../../arm-none-eabi/lib/thumb/v7e-m+fp/hard/libc_nano.a(libc_a-writer.o)
                                                  /usr/lib/gcc/arm-none-eabi/13.2.0/../../../../arm-none-eabi/lib/thumb/v7e-m+fp/hard/libc_nano.a(libc_a-stdio.o)
atexit                                            /usr/lib/gcc/arm-none-eabi/13.2.0/../../../../arm-none-eabi/lib/thumb/v7e-m+fp/hard/libc_nano.a(libc_a-atexit.o)
                                                  /usr/lib/gcc/arm-none-eabi/13.2.0/../../../../arm-none-eabi/lib/thumb/v7e-m+fp/hard/crt0.o
capacity_background_task                          CMakeFiles/MD407-MATRIX.elf.dir/src/main.c.obj (symbol from plugin)
eTaskGetState                                     CMakeFiles/MD407-MATRIX.elf.dir/libraries/FreeRTOS-Kernel/tasks.c.obj (symbol from plugin)
enable_timer                                      CMakeFiles/MD407-MATRIX.elf.dir/libraries/utils/timer.c.obj (symbol from plugin)
                                                  CMakeFiles/MD407-MATRIX.elf.dir/src/main.c.obj (symbol from plugin)
enable_timer_tim5                                 CMakeFiles/MD407-MATRIX.elf.dir/src/main.c.obj (symbol from plugin)
enable_usart                                      CMakeFiles/MD407-MATRIX.elf.dir/libraries/utils/usart.c.obj (symbol from plugin)
end                                               /usr/lib/gcc/arm-none-eabi/13.2.0/../../../../arm-none-eabi/lib/thumb/v7e-m+fp/hard/libnosys.a(sbrk.o)
errno                                             /usr/lib/gcc/arm-none-eabi/13.2.0/../../../../arm-none-eabi/lib/thumb/v7e-m+fp/hard/libc_nano.a(libc_a-reent.o)
                                                  /usr/lib/gcc/arm-none-eabi/13.2.0/../../../../arm-none-eabi/lib/thumb/v7e-m+fp/hard/libnosys.a(write.o)
                                                  /usr/lib/gcc/arm-none-eabi/13.2.0/../../../../arm-none-eabi/lib/thumb/v7e-m+fp/hard/libnosys.a(read.o)
                                                  /usr/lib/gcc/arm-none-eabi/13.2.0/../../../../arm-none-eabi/lib/thumb/v7e-m+fp/hard/libnosys.a(lseek.o)
                                                  /usr/lib/gcc/arm-none-eabi/13.2.0/../../../../arm-none-eabi/lib/thumb/v7e-m+fp/hard/libnosys.a(close.o)
                                                  /usr/lib/gcc/arm-none-eabi/13.2.0/../../../../arm-none-eabi/lib/thumb/v7e-m+fp/hard/libc_nano.a(libc_a-sbrkr.o)
                                                  /usr/lib/gcc/arm-none-eabi/13.2.0/../../../../arm-none-eabi/lib/thumb/v7e-m+fp/hard/libc_nano.a(libc_a-writer.o)
                                                  /usr/lib/gcc/arm-none-eabi/13.2.0/../../../../arm-none-eabi/lib/thumb/v7e-m+fp/hard/libc_nano.a(libc_a-readr.o)
                                                  /usr/lib/gcc/arm-none-eabi/13.2.0/../../../../arm-none-eabi/lib/thumb/v7e-m+fp/hard/libc_nano.a(libc_a-lseekr.o)
                                                  /usr/lib/gcc/arm-none-eabi/13.2.0/../../../../arm-none-eabi/lib/thumb/v7e-m+fp/hard/libc_nano.a(libc_a-closer.o)
exit                                              /usr/lib/gcc/arm-none-eabi/13.2.0/../../../../arm-none-eabi/lib/thumb/v7e-m+fp/hard/libc_nano.a(libc_a-exit.o)
                                                  /usr/lib/gcc/arm-none-eabi/13.2.0/../../../../arm-none-eabi/lib/thumb/v7e-m+fp/hard/crt0.o
fctprintf                                         CMakeFiles/MD407-MATRIX.elf.dir/libraries/utils/printf.c.obj (symbol from plugin)
fflush                                            /usr/lib/gcc/arm-none-eabi/13.2.0/../../../../arm-none-eabi/lib/thumb/v7e-m+fp/hard/libc_nano.a(libc_a-fflush.o)
float_to_string                                   CMakeFiles/MD407-MATRIX.elf.dir/libraries/utils/ftos.c.obj (symbol from plugin)
g_pfnVectors                                      CMakeFiles/MD407-MATRIX.elf.dir/vectors.s.obj
handle_melody                                     CMakeFiles/MD407-MATRIX.elf.dir/src/main.c.obj (symbol from plugin)
handle_spawn_background                           CMakeFiles/MD407-MATRIX.elf.dir/src/main.c.obj (symbol from plugin)
handle_switched_in                                CMakeFiles/MD407-MATRIX.elf.dir/src/main.c.obj (symbol from plugin)
                                                  CMakeFiles/MD407-MATRIX.elf.dir/libraries/FreeRTOS-Kernel/tasks.c.obj (symbol from plugin)
handle_switched_out                               CMakeFiles/MD407-MATRIX.elf.dir/src/main.c.obj (symbol from plugin)
                                                  CMakeFiles/MD407-MATRIX.elf.dir/libraries/FreeRTOS-Kernel/tasks.c.obj (symbol from plugin)
hardware_init_hook                                /usr/lib/gcc/arm-none-eabi/13.2.0/../../../../arm-none-eabi/lib/thumb/v7e-m+fp/hard/crt0.o
main                                              /tmp/ccMZqXQe.ltrans0.ltrans.o
                                                  CMakeFiles/MD407-MATRIX.elf.dir/src/main.c.obj (symbol from plugin)
                                                  CMakeFiles/MD407-MATRIX.elf.dir/vectors.s.obj
                                                  /usr/lib/gcc/arm-none-eabi/13.2.0/../../../../arm-none-eabi/lib/thumb/v7e-m+fp/hard/crt0.o
malloc                                            /usr/lib/gcc/arm-none-eabi/13.2.0/../../../../arm-none-eabi/lib/thumb/v7e-m+fp/hard/libc_nano.a(libc_a-__atexit.o)
memcpy                                            /usr/lib/gcc/arm-none-eabi/13.2.0/../../../../arm-none-eabi/lib/thumb/v7e-m+fp/hard/libc_nano.a(libc_a-memcpy-stub.o)
                                                  /tmp/ccMZqXQe.ltrans0.ltrans.o
memset                                            /usr/lib/gcc/arm-none-eabi/13.2.0/../../../../arm-none-eabi/lib/thumb/v7e-m+fp/hard/libc_nano.a(libc_a-memset.o)
                                                  /tmp/ccMZqXQe.ltrans0.ltrans.o
                                                  /usr/lib/gcc/arm-none-eabi/13.2.0/../../../../arm-none-eabi/lib/thumb/v7e-m+fp/hard/libc_nano.a(libc_a-findfp.o)
                                                  /usr/lib/gcc/arm-none-eabi/13.2.0/../../../../arm-none-eabi/lib/thumb/v7e-m+fp/hard/crt0.o
n_tu                                              CMakeFiles/MD407-MATRIX.elf.dir/libraries/utils/ftos.c.obj (symbol from plugin)
pcQueueGetName                                    CMakeFiles/MD407-MATRIX.elf.dir/libraries/FreeRTOS-Kernel/queue.c.obj (symbol from plugin)
pcTaskGetName                                     CMakeFiles/MD407-MATRIX.elf.dir/libraries/FreeRTOS-Kernel/tasks.c.obj (symbol from plugin)
pcTimerGetName                                    CMakeFiles/MD407-MATRIX.elf.dir/libraries/FreeRTOS-Kernel/timers.c.obj (symbol from plugin)
print                                             CMakeFiles/MD407-MATRIX.elf.dir/libraries/utils/usart.c.obj (symbol from plugin)
printf_                                           CMakeFiles/MD407-MATRIX.elf.dir/libraries/utils/printf.c.obj (symbol from plugin)
                                                  CMakeFiles/MD407-MATRIX.elf.dir/src/main.c.obj (symbol from plugin)
pvTaskIncrementMutexHeldCount                     CMakeFiles/MD407-MATRIX.elf.dir/libraries/FreeRTOS-Kernel/tasks.c.obj (symbol from plugin)
                                                  CMakeFiles/MD407-MATRIX.elf.dir/libraries/FreeRTOS-Kernel/queue.c.obj (symbol from plugin)
pvTimerGetTimerID                                 CMakeFiles/MD407-MATRIX.elf.dir/libraries/FreeRTOS-Kernel/timers.c.obj (symbol from plugin)
pxCurrentTCB                                      /tmp/ccMZqXQe.ltrans0.ltrans.o
                                                  CMakeFiles/MD407-MATRIX.elf.dir/libraries/FreeRTOS-Kernel/tasks.c.obj (symbol from plugin)
pxPortInitialiseStack                             CMakeFiles/MD407-MATRIX.elf.dir/libraries/FreeRTOS-Kernel/portable/GCC/ARM_CM4F/port.c.obj (symbol from plugin)
                                                  CMakeFiles/MD407-MATRIX.elf.dir/libraries/FreeRTOS-Kernel/tasks.c.obj (symbol from plugin)
snprintf_                                         CMakeFiles/MD407-MATRIX.elf.dir/libraries/utils/printf.c.obj (symbol from plugin)
software_init_hook                                /usr/lib/gcc/arm-none-eabi/13.2.0/../../../../arm-none-eabi/lib/thumb/v7e-m+fp/hard/crt0.o
sprintf_                                          CMakeFiles/MD407-MATRIX.elf.dir/libraries/utils/printf.c.obj (symbol from plugin)
                                                  CMakeFiles/MD407-MATRIX.elf.dir/src/main.c.obj (symbol from plugin)
startup                                           /tmp/ccMZqXQe.ltrans0.ltrans.o
                                                  CMakeFiles/MD407-MATRIX.elf.dir/startup.c.obj (symbol from plugin)
task_background                                   CMakeFiles/MD407-MATRIX.elf.dir/src/main.c.obj (symbol from plugin)
task_cpu_usage                                    CMakeFiles/MD407-MATRIX.elf.dir/src/main.c.obj (symbol from plugin)
task_melody                                       CMakeFiles/MD407-MATRIX.elf.dir/src/main.c.obj (symbol from plugin)
time_us                                           CMakeFiles/MD407-MATRIX.elf.dir/libraries/utils/timer.c.obj (symbol from plugin)
                                                  CMakeFiles/MD407-MATRIX.elf.dir/src/main.c.obj (symbol from plugin)
ucQueueGetQueueType                               CMakeFiles/MD407-MATRIX.elf.dir/libraries/FreeRTOS-Kernel/queue.c.obj (symbol from plugin)
ucStreamBufferGetStreamBufferType                 CMakeFiles/MD407-MATRIX.elf.dir/libraries/FreeRTOS-Kernel/stream_buffer.c.obj (symbol from plugin)
ulTaskGenericNotifyTake                           CMakeFiles/MD407-MATRIX.elf.dir/libraries/FreeRTOS-Kernel/tasks.c.obj (symbol from plugin)
                                                  CMakeFiles/MD407-MATRIX.elf.dir/src/main.c.obj (symbol from plugin)
ulTaskGenericNotifyValueClear                     CMakeFiles/MD407-MATRIX.elf.dir/libraries/FreeRTOS-Kernel/tasks.c.obj (symbol from plugin)
uxEventGroupGetNumber                             CMakeFiles/MD407-MATRIX.elf.dir/libraries/FreeRTOS-Kernel/event_groups.c.obj (symbol from plugin)
uxListRemove                                      CMakeFiles/MD407-MATRIX.elf.dir/libraries/FreeRTOS-Kernel/list.c.obj (symbol from plugin)
                                                  CMakeFiles/MD407-MATRIX.elf.dir/libraries/FreeRTOS-Kernel/timers.c.obj (symbol from plugin)
                                                  CMakeFiles/MD407-MATRIX.elf.dir/libraries/FreeRTOS-Kernel/tasks.c.obj (symbol from plugin)
uxQueueGetQueueItemSize                           CMakeFiles/MD407-MATRIX.elf.dir/libraries/FreeRTOS-Kernel/queue.c.obj (symbol from plugin)
uxQueueGetQueueLength                             CMakeFiles/MD407-MATRIX.elf.dir/libraries/FreeRTOS-Kernel/queue.c.obj (symbol from plugin)
uxQueueGetQueueNumber                             CMakeFiles/MD407-MATRIX.elf.dir/libraries/FreeRTOS-Kernel/queue.c.obj (symbol from plugin)
uxQueueMessagesWaiting                            CMakeFiles/MD407-MATRIX.elf.dir/libraries/FreeRTOS-Kernel/queue.c.obj (symbol from plugin)
uxQueueMessagesWaitingFromISR                     CMakeFiles/MD407-MATRIX.elf.dir/libraries/FreeRTOS-Kernel/queue.c.obj (symbol from plugin)
uxQueueSpacesAvailable                            CMakeFiles/MD407-MATRIX.elf.dir/libraries/FreeRTOS-Kernel/queue.c.obj (symbol from plugin)
uxStreamBufferGetStreamBufferNotificationIndex    CMakeFiles/MD407-MATRIX.elf.dir/libraries/FreeRTOS-Kernel/stream_buffer.c.obj (symbol from plugin)
uxStreamBufferGetStreamBufferNumber               CMakeFiles/MD407-MATRIX.elf.dir/libraries/FreeRTOS-Kernel/stream_buffer.c.obj (symbol from plugin)
uxTaskBasePriorityGet                             CMakeFiles/MD407-MATRIX.elf.dir/libraries/FreeRTOS-Kernel/tasks.c.obj (symbol from plugin)
uxTaskBasePriorityGetFromISR                      CMakeFiles/MD407-MATRIX.elf.dir/libraries/FreeRTOS-Kernel/tasks.c.obj (symbol from plugin)
uxTaskGetNumberOfTasks                            CMakeFiles/MD407-MATRIX.elf.dir/libraries/FreeRTOS-Kernel/tasks.c.obj (symbol from plugin)
                                                  CMakeFiles/MD407-MATRIX.elf.dir/libraries/FreeRTOS-Kernel/queue.c.obj (symbol from plugin)
uxTaskGetStackHighWaterMark                       CMakeFiles/MD407-MATRIX.elf.dir/libraries/FreeRTOS-Kernel/tasks.c.obj (symbol from plugin)
uxTaskGetSystemState                              CMakeFiles/MD407-MATRIX.elf.dir/libraries/FreeRTOS-Kernel/tasks.c.obj (symbol from plugin)
uxTaskGetTaskNumber                               CMakeFiles/MD407-MATRIX.elf.dir/libraries/FreeRTOS-Kernel/tasks.c.obj (symbol from plugin)
uxTaskPriorityGet                                 CMakeFiles/MD407-MATRIX.elf.dir/libraries/FreeRTOS-Kernel/tasks.c.obj (symbol from plugin)
uxTaskPriorityGetFromISR                          CMakeFiles/MD407-MATRIX.elf.dir/libraries/FreeRTOS-Kernel/tasks.c.obj (symbol from plugin)
uxTaskResetEventItemValue                         CMakeFiles/MD407-MATRIX.elf.dir/libraries/FreeRTOS-Kernel/tasks.c.obj (symbol from plugin)
                                                  CMakeFiles/MD407-MATRIX.elf.dir/libraries/FreeRTOS-Kernel/event_groups.c.obj (symbol from plugin)
uxTimerGetReloadMode                              CMakeFiles/MD407-MATRIX.elf.dir/libraries/FreeRTOS-Kernel/timers.c.obj (symbol from plugin)
uxTimerGetTimerNumber                             CMakeFiles/MD407-MATRIX.elf.dir/libraries/FreeRTOS-Kernel/timers.c.obj (symbol from plugin)
vApplicationGetIdleTaskMemory                     CMakeFiles/MD407-MATRIX.elf.dir/src/main.c.obj (symbol from plugin)
                                                  CMakeFiles/MD407-MATRIX.elf.dir/libraries/FreeRTOS-Kernel/tasks.c.obj (symbol from plugin)
vApplicationGetTimerTaskMemory                    CMakeFiles/MD407-MATRIX.elf.dir/src/main.c.obj (symbol from plugin)
                                                  CMakeFiles/MD407-MATRIX.elf.dir/libraries/FreeRTOS-Kernel/timers.c.obj (symbol from plugin)
vEventGroupClearBitsCallback                      CMakeFiles/MD407-MATRIX.elf.dir/libraries/FreeRTOS-Kernel/event_groups.c.obj (symbol from plugin)
vEventGroupDelete                                 CMakeFiles/MD407-MATRIX.elf.dir/libraries/FreeRTOS-Kernel/event_groups.c.obj (symbol from plugin)
vEventGroupSetBitsCallback                        CMakeFiles/MD407-MATRIX.elf.dir/libraries/FreeRTOS-Kernel/event_groups.c.obj (symbol from plugin)
vEventGroupSetNumber                              CMakeFiles/MD407-MATRIX.elf.dir/libraries/FreeRTOS-Kernel/event_groups.c.obj (symbol from plugin)
vListInitialise                                   CMakeFiles/MD407-MATRIX.elf.dir/libraries/FreeRTOS-Kernel/list.c.obj (symbol from plugin)
                                                  CMakeFiles/MD407-MATRIX.elf.dir/libraries/FreeRTOS-Kernel/timers.c.obj (symbol from plugin)
                                                  CMakeFiles/MD407-MATRIX.elf.dir/libraries/FreeRTOS-Kernel/tasks.c.obj (symbol from plugin)
                                                  CMakeFiles/MD407-MATRIX.elf.dir/libraries/FreeRTOS-Kernel/queue.c.obj (symbol from plugin)
                                                  CMakeFiles/MD407-MATRIX.elf.dir/libraries/FreeRTOS-Kernel/event_groups.c.obj (symbol from plugin)
vListInitialiseItem                               CMakeFiles/MD407-MATRIX.elf.dir/libraries/FreeRTOS-Kernel/list.c.obj (symbol from plugin)
                                                  CMakeFiles/MD407-MATRIX.elf.dir/libraries/FreeRTOS-Kernel/timers.c.obj (symbol from plugin)
                                                  CMakeFiles/MD407-MATRIX.elf.dir/libraries/FreeRTOS-Kernel/tasks.c.obj (symbol from plugin)
vListInsert                                       CMakeFiles/MD407-MATRIX.elf.dir/libraries/FreeRTOS-Kernel/list.c.obj (symbol from plugin)
                                                  CMakeFiles/MD407-MATRIX.elf.dir/libraries/FreeRTOS-Kernel/timers.c.obj (symbol from plugin)
                                                  CMakeFiles/MD407-MATRIX.elf.dir/libraries/FreeRTOS-Kernel/tasks.c.obj (symbol from plugin)
vListInsertEnd                                    CMakeFiles/MD407-MATRIX.elf.dir/libraries/FreeRTOS-Kernel/list.c.obj (symbol from plugin)
                                                  CMakeFiles/MD407-MATRIX.elf.dir/libraries/FreeRTOS-Kernel/tasks.c.obj (symbol from plugin)
vPortEndScheduler                                 CMakeFiles/MD407-MATRIX.elf.dir/libraries/FreeRTOS-Kernel/portable/GCC/ARM_CM4F/port.c.obj (symbol from plugin)
                                                  CMakeFiles/MD407-MATRIX.elf.dir/libraries/FreeRTOS-Kernel/tasks.c.obj (symbol from plugin)
vPortEnterCritical                                CMakeFiles/MD407-MATRIX.elf.dir/libraries/FreeRTOS-Kernel/portable/GCC/ARM_CM4F/port.c.obj (symbol from plugin)
                                                  CMakeFiles/MD407-MATRIX.elf.dir/libraries/FreeRTOS-Kernel/timers.c.obj (symbol from plugin)
                                                  CMakeFiles/MD407-MATRIX.elf.dir/libraries/FreeRTOS-Kernel/tasks.c.obj (symbol from plugin)
                                                  CMakeFiles/MD407-MATRIX.elf.dir/libraries/FreeRTOS-Kernel/stream_buffer.c.obj (symbol from plugin)
                                                  CMakeFiles/MD407-MATRIX.elf.dir/libraries/FreeRTOS-Kernel/queue.c.obj (symbol from plugin)
                                                  CMakeFiles/MD407-MATRIX.elf.dir/libraries/FreeRTOS-Kernel/event_groups.c.obj (symbol from plugin)
vPortExitCritical                                 CMakeFiles/MD407-MATRIX.elf.dir/libraries/FreeRTOS-Kernel/portable/GCC/ARM_CM4F/port.c.obj (symbol from plugin)
                                                  CMakeFiles/MD407-MATRIX.elf.dir/libraries/FreeRTOS-Kernel/timers.c.obj (symbol from plugin)
                                                  CMakeFiles/MD407-MATRIX.elf.dir/libraries/FreeRTOS-Kernel/tasks.c.obj (symbol from plugin)
                                                  CMakeFiles/MD407-MATRIX.elf.dir/libraries/FreeRTOS-Kernel/stream_buffer.c.obj (symbol from plugin)
                                                  CMakeFiles/MD407-MATRIX.elf.dir/libraries/FreeRTOS-Kernel/queue.c.obj (symbol from plugin)
                                                  CMakeFiles/MD407-MATRIX.elf.dir/libraries/FreeRTOS-Kernel/event_groups.c.obj (symbol from plugin)
vPortSetupTimerInterrupt                          CMakeFiles/MD407-MATRIX.elf.dir/libraries/FreeRTOS-Kernel/portable/GCC/ARM_CM4F/port.c.obj (symbol from plugin)
vPortValidateInterruptPriority                    CMakeFiles/MD407-MATRIX.elf.dir/libraries/FreeRTOS-Kernel/portable/GCC/ARM_CM4F/port.c.obj (symbol from plugin)
                                                  CMakeFiles/MD407-MATRIX.elf.dir/libraries/FreeRTOS-Kernel/tasks.c.obj (symbol from plugin)
                                                  CMakeFiles/MD407-MATRIX.elf.dir/libraries/FreeRTOS-Kernel/queue.c.obj (symbol from plugin)
vQueueAddToRegistry                               CMakeFiles/MD407-MATRIX.elf.dir/libraries/FreeRTOS-Kernel/queue.c.obj (symbol from plugin)
                                                  CMakeFiles/MD407-MATRIX.elf.dir/libraries/FreeRTOS-Kernel/timers.c.obj (symbol from plugin)
vQueueDelete                                      CMakeFiles/MD407-MATRIX.elf.dir/libraries/FreeRTOS-Kernel/queue.c.obj (symbol from plugin)
vQueueSetQueueNumber                              CMakeFiles/MD407-MATRIX.elf.dir/libraries/FreeRTOS-Kernel/queue.c.obj (symbol from plugin)
vQueueUnregisterQueue                             CMakeFiles/MD407-MATRIX.elf.dir/libraries/FreeRTOS-Kernel/queue.c.obj (symbol from plugin)
vQueueWaitForMessageRestricted                    CMakeFiles/MD407-MATRIX.elf.dir/libraries/FreeRTOS-Kernel/queue.c.obj (symbol from plugin)
                                                  CMakeFiles/MD407-MATRIX.elf.dir/libraries/FreeRTOS-Kernel/timers.c.obj (symbol from plugin)
vStreamBufferDelete                               CMakeFiles/MD407-MATRIX.elf.dir/libraries/FreeRTOS-Kernel/stream_buffer.c.obj (symbol from plugin)
vStreamBufferSetStreamBufferNotificationIndex     CMakeFiles/MD407-MATRIX.elf.dir/libraries/FreeRTOS-Kernel/stream_buffer.c.obj (symbol from plugin)
vStreamBufferSetStreamBufferNumber                CMakeFiles/MD407-MATRIX.elf.dir/libraries/FreeRTOS-Kernel/stream_buffer.c.obj (symbol from plugin)
vTaskDelay                                        CMakeFiles/MD407-MATRIX.elf.dir/libraries/FreeRTOS-Kernel/tasks.c.obj (symbol from plugin)
                                                  CMakeFiles/MD407-MATRIX.elf.dir/src/main.c.obj (symbol from plugin)
vTaskDelete                                       CMakeFiles/MD407-MATRIX.elf.dir/libraries/FreeRTOS-Kernel/tasks.c.obj (symbol from plugin)
vTaskEndScheduler                                 CMakeFiles/MD407-MATRIX.elf.dir/libraries/FreeRTOS-Kernel/tasks.c.obj (symbol from plugin)
vTaskGenericNotifyGiveFromISR                     CMakeFiles/MD407-MATRIX.elf.dir/libraries/FreeRTOS-Kernel/tasks.c.obj (symbol from plugin)
                                                  CMakeFiles/MD407-MATRIX.elf.dir/src/main.c.obj (symbol from plugin)
vTaskGetInfo                                      CMakeFiles/MD407-MATRIX.elf.dir/libraries/FreeRTOS-Kernel/tasks.c.obj (symbol from plugin)
vTaskInternalSetTimeOutState                      CMakeFiles/MD407-MATRIX.elf.dir/libraries/FreeRTOS-Kernel/tasks.c.obj (symbol from plugin)
                                                  CMakeFiles/MD407-MATRIX.elf.dir/libraries/FreeRTOS-Kernel/queue.c.obj (symbol from plugin)
vTaskMissedYield                                  CMakeFiles/MD407-MATRIX.elf.dir/libraries/FreeRTOS-Kernel/tasks.c.obj (symbol from plugin)
                                                  CMakeFiles/MD407-MATRIX.elf.dir/libraries/FreeRTOS-Kernel/queue.c.obj (symbol from plugin)
vTaskPlaceOnEventList                             CMakeFiles/MD407-MATRIX.elf.dir/libraries/FreeRTOS-Kernel/tasks.c.obj (symbol from plugin)
                                                  CMakeFiles/MD407-MATRIX.elf.dir/libraries/FreeRTOS-Kernel/queue.c.obj (symbol from plugin)
vTaskPlaceOnEventListRestricted                   CMakeFiles/MD407-MATRIX.elf.dir/libraries/FreeRTOS-Kernel/tasks.c.obj (symbol from plugin)
                                                  CMakeFiles/MD407-MATRIX.elf.dir/libraries/FreeRTOS-Kernel/queue.c.obj (symbol from plugin)
vTaskPlaceOnUnorderedEventList                    CMakeFiles/MD407-MATRIX.elf.dir/libraries/FreeRTOS-Kernel/tasks.c.obj (symbol from plugin)
                                                  CMakeFiles/MD407-MATRIX.elf.dir/libraries/FreeRTOS-Kernel/event_groups.c.obj (symbol from plugin)
vTaskPriorityDisinheritAfterTimeout               CMakeFiles/MD407-MATRIX.elf.dir/libraries/FreeRTOS-Kernel/tasks.c.obj (symbol from plugin)
                                                  CMakeFiles/MD407-MATRIX.elf.dir/libraries/FreeRTOS-Kernel/queue.c.obj (symbol from plugin)
vTaskPrioritySet                                  CMakeFiles/MD407-MATRIX.elf.dir/libraries/FreeRTOS-Kernel/tasks.c.obj (symbol from plugin)
vTaskRemoveFromUnorderedEventList                 CMakeFiles/MD407-MATRIX.elf.dir/libraries/FreeRTOS-Kernel/tasks.c.obj (symbol from plugin)
                                                  CMakeFiles/MD407-MATRIX.elf.dir/libraries/FreeRTOS-Kernel/event_groups.c.obj (symbol from plugin)
vTaskResetState                                   CMakeFiles/MD407-MATRIX.elf.dir/libraries/FreeRTOS-Kernel/tasks.c.obj (symbol from plugin)
vTaskResume                                       CMakeFiles/MD407-MATRIX.elf.dir/libraries/FreeRTOS-Kernel/tasks.c.obj (symbol from plugin)
vTaskSetTaskNumber                                CMakeFiles/MD407-MATRIX.elf.dir/libraries/FreeRTOS-Kernel/tasks.c.obj (symbol from plugin)
vTaskSetTimeOutState                              CMakeFiles/MD407-MATRIX.elf.dir/libraries/FreeRTOS-Kernel/tasks.c.obj (symbol from plugin)
                                                  CMakeFiles/MD407-MATRIX.elf.dir/libraries/FreeRTOS-Kernel/stream_buffer.c.obj (symbol from plugin)
vTaskStartScheduler                               CMakeFiles/MD407-MATRIX.elf.dir/libraries/FreeRTOS-Kernel/tasks.c.obj (symbol from plugin)
                                                  CMakeFiles/MD407-MATRIX.elf.dir/src/main.c.obj (symbol from plugin)
vTaskSuspend                                      CMakeFiles/MD407-MATRIX.elf.dir/libraries/FreeRTOS-Kernel/tasks.c.obj (symbol from plugin)
vTaskSuspendAll                                   CMakeFiles/MD407-MATRIX.elf.dir/libraries/FreeRTOS-Kernel/tasks.c.obj (symbol from plugin)
                                                  CMakeFiles/MD407-MATRIX.elf.dir/libraries/FreeRTOS-Kernel/timers.c.obj (symbol from plugin)
                                                  CMakeFiles/MD407-MATRIX.elf.dir/libraries/FreeRTOS-Kernel/stream_buffer.c.obj (symbol from plugin)
                                                  CMakeFiles/MD407-MATRIX.elf.dir/libraries/FreeRTOS-Kernel/queue.c.obj (symbol from plugin)
                                                  CMakeFiles/MD407-MATRIX.elf.dir/libraries/FreeRTOS-Kernel/event_groups.c.obj (symbol from plugin)
vTaskSwitchContext                                /tmp/ccMZqXQe.ltrans0.ltrans.o
                                                  CMakeFiles/MD407-MATRIX.elf.dir/libraries/FreeRTOS-Kernel/tasks.c.obj (symbol from plugin)
                                                  CMakeFiles/MD407-MATRIX.elf.dir/libraries/FreeRTOS-Kernel/portable/GCC/ARM_CM4F/port.c.obj (symbol from plugin)
vTimerResetState                                  CMakeFiles/MD407-MATRIX.elf.dir/libraries/FreeRTOS-Kernel/timers.c.obj (symbol from plugin)
vTimerSetReloadMode                               CMakeFiles/MD407-MATRIX.elf.dir/libraries/FreeRTOS-Kernel/timers.c.obj (symbol from plugin)
vTimerSetTimerID                                  CMakeFiles/MD407-MATRIX.elf.dir/libraries/FreeRTOS-Kernel/timers.c.obj (symbol from plugin)
vTimerSetTimerNumber                              CMakeFiles/MD407-MATRIX.elf.dir/libraries/FreeRTOS-Kernel/timers.c.obj (symbol from plugin)
vprintf_                                          CMakeFiles/MD407-MATRIX.elf.dir/libraries/utils/printf.c.obj (symbol from plugin)
vsnprintf_                                        CMakeFiles/MD407-MATRIX.elf.dir/libraries/utils/printf.c.obj (symbol from plugin)
xDifferencePICO                                   CMakeFiles/MD407-MATRIX.elf.dir/src/main.c.obj (symbol from plugin)
xEventGroupClearBits                              CMakeFiles/MD407-MATRIX.elf.dir/libraries/FreeRTOS-Kernel/event_groups.c.obj (symbol from plugin)
xEventGroupCreateStatic                           CMakeFiles/MD407-MATRIX.elf.dir/libraries/FreeRTOS-Kernel/event_groups.c.obj (symbol from plugin)
xEventGroupGetBitsFromISR                         CMakeFiles/MD407-MATRIX.elf.dir/libraries/FreeRTOS-Kernel/event_groups.c.obj (symbol from plugin)
xEventGroupGetStaticBuffer                        CMakeFiles/MD407-MATRIX.elf.dir/libraries/FreeRTOS-Kernel/event_groups.c.obj (symbol from plugin)
xEventGroupSetBits                                CMakeFiles/MD407-MATRIX.elf.dir/libraries/FreeRTOS-Kernel/event_groups.c.obj (symbol from plugin)
xEventGroupSync                                   CMakeFiles/MD407-MATRIX.elf.dir/libraries/FreeRTOS-Kernel/event_groups.c.obj (symbol from plugin)
xEventGroupWaitBits                               CMakeFiles/MD407-MATRIX.elf.dir/libraries/FreeRTOS-Kernel/event_groups.c.obj (symbol from plugin)
xPortStartScheduler                               CMakeFiles/MD407-MATRIX.elf.dir/libraries/FreeRTOS-Kernel/portable/GCC/ARM_CM4F/port.c.obj (symbol from plugin)
                                                  CMakeFiles/MD407-MATRIX.elf.dir/libraries/FreeRTOS-Kernel/tasks.c.obj (symbol from plugin)
xQueueCreateCountingSemaphoreStatic               CMakeFiles/MD407-MATRIX.elf.dir/libraries/FreeRTOS-Kernel/queue.c.obj (symbol from plugin)
xQueueCreateMutexStatic                           CMakeFiles/MD407-MATRIX.elf.dir/libraries/FreeRTOS-Kernel/queue.c.obj (symbol from plugin)
xQueueGenericCreateStatic                         CMakeFiles/MD407-MATRIX.elf.dir/libraries/FreeRTOS-Kernel/queue.c.obj (symbol from plugin)
                                                  CMakeFiles/MD407-MATRIX.elf.dir/libraries/FreeRTOS-Kernel/timers.c.obj (symbol from plugin)
xQueueGenericGetStaticBuffers                     CMakeFiles/MD407-MATRIX.elf.dir/libraries/FreeRTOS-Kernel/queue.c.obj (symbol from plugin)
xQueueGenericReset                                CMakeFiles/MD407-MATRIX.elf.dir/libraries/FreeRTOS-Kernel/queue.c.obj (symbol from plugin)
xQueueGenericSend                                 CMakeFiles/MD407-MATRIX.elf.dir/libraries/FreeRTOS-Kernel/queue.c.obj (symbol from plugin)
                                                  CMakeFiles/MD407-MATRIX.elf.dir/libraries/FreeRTOS-Kernel/timers.c.obj (symbol from plugin)
xQueueGenericSendFromISR                          CMakeFiles/MD407-MATRIX.elf.dir/libraries/FreeRTOS-Kernel/queue.c.obj (symbol from plugin)
                                                  CMakeFiles/MD407-MATRIX.elf.dir/libraries/FreeRTOS-Kernel/timers.c.obj (symbol from plugin)
xQueueGetMutexHolder                              CMakeFiles/MD407-MATRIX.elf.dir/libraries/FreeRTOS-Kernel/queue.c.obj (symbol from plugin)
xQueueGetMutexHolderFromISR                       CMakeFiles/MD407-MATRIX.elf.dir/libraries/FreeRTOS-Kernel/queue.c.obj (symbol from plugin)
xQueueGiveFromISR                                 CMakeFiles/MD407-MATRIX.elf.dir/libraries/FreeRTOS-Kernel/queue.c.obj (symbol from plugin)
xQueueGiveMutexRecursive                          CMakeFiles/MD407-MATRIX.elf.dir/libraries/FreeRTOS-Kernel/queue.c.obj (symbol from plugin)
xQueueIsQueueEmptyFromISR                         CMakeFiles/MD407-MATRIX.elf.dir/libraries/FreeRTOS-Kernel/queue.c.obj (symbol from plugin)
xQueueIsQueueFullFromISR                          CMakeFiles/MD407-MATRIX.elf.dir/libraries/FreeRTOS-Kernel/queue.c.obj (symbol from plugin)
xQueuePeek                                        CMakeFiles/MD407-MATRIX.elf.dir/libraries/FreeRTOS-Kernel/queue.c.obj (symbol from plugin)
xQueuePeekFromISR                                 CMakeFiles/MD407-MATRIX.elf.dir/libraries/FreeRTOS-Kernel/queue.c.obj (symbol from plugin)
xQueueReceive                                     CMakeFiles/MD407-MATRIX.elf.dir/libraries/FreeRTOS-Kernel/queue.c.obj (symbol from plugin)
                                                  CMakeFiles/MD407-MATRIX.elf.dir/libraries/FreeRTOS-Kernel/timers.c.obj (symbol from plugin)
xQueueReceiveFromISR                              CMakeFiles/MD407-MATRIX.elf.dir/libraries/FreeRTOS-Kernel/queue.c.obj (symbol from plugin)
xQueueRegistry                                    CMakeFiles/MD407-MATRIX.elf.dir/libraries/FreeRTOS-Kernel/queue.c.obj (symbol from plugin)
xQueueSemaphoreTake                               CMakeFiles/MD407-MATRIX.elf.dir/libraries/FreeRTOS-Kernel/queue.c.obj (symbol from plugin)
xQueueTakeMutexRecursive                          CMakeFiles/MD407-MATRIX.elf.dir/libraries/FreeRTOS-Kernel/queue.c.obj (symbol from plugin)
xStackBackground                                  CMakeFiles/MD407-MATRIX.elf.dir/src/main.c.obj (symbol from plugin)
xStackMelody                                      CMakeFiles/MD407-MATRIX.elf.dir/src/main.c.obj (symbol from plugin)
xStackSpawnBackground                             CMakeFiles/MD407-MATRIX.elf.dir/src/main.c.obj (symbol from plugin)
xStartMelody                                      CMakeFiles/MD407-MATRIX.elf.dir/src/main.c.obj (symbol from plugin)
xStartSpawnBackground                             CMakeFiles/MD407-MATRIX.elf.dir/src/main.c.obj (symbol from plugin)
xStreamBufferBytesAvailable                       CMakeFiles/MD407-MATRIX.elf.dir/libraries/FreeRTOS-Kernel/stream_buffer.c.obj (symbol from plugin)
xStreamBufferGenericCreateStatic                  CMakeFiles/MD407-MATRIX.elf.dir/libraries/FreeRTOS-Kernel/stream_buffer.c.obj (symbol from plugin)
xStreamBufferGetStaticBuffers                     CMakeFiles/MD407-MATRIX.elf.dir/libraries/FreeRTOS-Kernel/stream_buffer.c.obj (symbol from plugin)
xStreamBufferIsEmpty                              CMakeFiles/MD407-MATRIX.elf.dir/libraries/FreeRTOS-Kernel/stream_buffer.c.obj (symbol from plugin)
xStreamBufferIsFull                               CMakeFiles/MD407-MATRIX.elf.dir/libraries/FreeRTOS-Kernel/stream_buffer.c.obj (symbol from plugin)
xStreamBufferNextMessageLengthBytes               CMakeFiles/MD407-MATRIX.elf.dir/libraries/FreeRTOS-Kernel/stream_buffer.c.obj (symbol from plugin)
xStreamBufferReceive                              CMakeFiles/MD407-MATRIX.elf.dir/libraries/FreeRTOS-Kernel/stream_buffer.c.obj (symbol from plugin)
xStreamBufferReceiveCompletedFromISR              CMakeFiles/MD407-MATRIX.elf.dir/libraries/FreeRTOS-Kernel/stream_buffer.c.obj (symbol from plugin)
xStreamBufferReceiveFromISR                       CMakeFiles/MD407-MATRIX.elf.dir/libraries/FreeRTOS-Kernel/stream_buffer.c.obj (symbol from plugin)
xStreamBufferReset                                CMakeFiles/MD407-MATRIX.elf.dir/libraries/FreeRTOS-Kernel/stream_buffer.c.obj (symbol from plugin)
xStreamBufferSend                                 CMakeFiles/MD407-MATRIX.elf.dir/libraries/FreeRTOS-Kernel/stream_buffer.c.obj (symbol from plugin)
xStreamBufferSendCompletedFromISR                 CMakeFiles/MD407-MATRIX.elf.dir/libraries/FreeRTOS-Kernel/stream_buffer.c.obj (symbol from plugin)
xStreamBufferSendFromISR                          CMakeFiles/MD407-MATRIX.elf.dir/libraries/FreeRTOS-Kernel/stream_buffer.c.obj (symbol from plugin)
xStreamBufferSetTriggerLevel                      CMakeFiles/MD407-MATRIX.elf.dir/libraries/FreeRTOS-Kernel/stream_buffer.c.obj (symbol from plugin)
xStreamBufferSpacesAvailable                      CMakeFiles/MD407-MATRIX.elf.dir/libraries/FreeRTOS-Kernel/stream_buffer.c.obj (symbol from plugin)
xTaskBufferBackground                             CMakeFiles/MD407-MATRIX.elf.dir/src/main.c.obj (symbol from plugin)
xTaskBufferMelody                                 CMakeFiles/MD407-MATRIX.elf.dir/src/main.c.obj (symbol from plugin)
xTaskBufferSpawnBackground                        CMakeFiles/MD407-MATRIX.elf.dir/src/main.c.obj (symbol from plugin)
xTaskCatchUpTicks                                 CMakeFiles/MD407-MATRIX.elf.dir/libraries/FreeRTOS-Kernel/tasks.c.obj (symbol from plugin)
xTaskCheckForTimeOut                              CMakeFiles/MD407-MATRIX.elf.dir/libraries/FreeRTOS-Kernel/tasks.c.obj (symbol from plugin)
                                                  CMakeFiles/MD407-MATRIX.elf.dir/libraries/FreeRTOS-Kernel/stream_buffer.c.obj (symbol from plugin)
                                                  CMakeFiles/MD407-MATRIX.elf.dir/libraries/FreeRTOS-Kernel/queue.c.obj (symbol from plugin)
xTaskCreateStatic                                 CMakeFiles/MD407-MATRIX.elf.dir/libraries/FreeRTOS-Kernel/tasks.c.obj (symbol from plugin)
                                                  CMakeFiles/MD407-MATRIX.elf.dir/src/main.c.obj (symbol from plugin)
                                                  CMakeFiles/MD407-MATRIX.elf.dir/libraries/FreeRTOS-Kernel/timers.c.obj (symbol from plugin)
xTaskDelayUntil                                   CMakeFiles/MD407-MATRIX.elf.dir/libraries/FreeRTOS-Kernel/tasks.c.obj (symbol from plugin)
xTaskGenericNotify                                CMakeFiles/MD407-MATRIX.elf.dir/libraries/FreeRTOS-Kernel/tasks.c.obj (symbol from plugin)
                                                  CMakeFiles/MD407-MATRIX.elf.dir/libraries/FreeRTOS-Kernel/stream_buffer.c.obj (symbol from plugin)
xTaskGenericNotifyFromISR                         CMakeFiles/MD407-MATRIX.elf.dir/libraries/FreeRTOS-Kernel/tasks.c.obj (symbol from plugin)
                                                  CMakeFiles/MD407-MATRIX.elf.dir/libraries/FreeRTOS-Kernel/stream_buffer.c.obj (symbol from plugin)
xTaskGenericNotifyStateClear                      CMakeFiles/MD407-MATRIX.elf.dir/libraries/FreeRTOS-Kernel/tasks.c.obj (symbol from plugin)
                                                  CMakeFiles/MD407-MATRIX.elf.dir/libraries/FreeRTOS-Kernel/stream_buffer.c.obj (symbol from plugin)
xTaskGenericNotifyWait                            CMakeFiles/MD407-MATRIX.elf.dir/libraries/FreeRTOS-Kernel/tasks.c.obj (symbol from plugin)
                                                  CMakeFiles/MD407-MATRIX.elf.dir/libraries/FreeRTOS-Kernel/stream_buffer.c.obj (symbol from plugin)
xTaskGetCurrentTaskHandle                         CMakeFiles/MD407-MATRIX.elf.dir/libraries/FreeRTOS-Kernel/tasks.c.obj (symbol from plugin)
                                                  CMakeFiles/MD407-MATRIX.elf.dir/libraries/FreeRTOS-Kernel/stream_buffer.c.obj (symbol from plugin)
                                                  CMakeFiles/MD407-MATRIX.elf.dir/libraries/FreeRTOS-Kernel/queue.c.obj (symbol from plugin)
xTaskGetCurrentTaskHandleForCore                  CMakeFiles/MD407-MATRIX.elf.dir/libraries/FreeRTOS-Kernel/tasks.c.obj (symbol from plugin)
xTaskGetIdleTaskHandle                            CMakeFiles/MD407-MATRIX.elf.dir/libraries/FreeRTOS-Kernel/tasks.c.obj (symbol from plugin)
                                                  CMakeFiles/MD407-MATRIX.elf.dir/src/main.c.obj (symbol from plugin)
xTaskGetIdleTaskHandleForCore                     CMakeFiles/MD407-MATRIX.elf.dir/libraries/FreeRTOS-Kernel/tasks.c.obj (symbol from plugin)
xTaskGetSchedulerState                            CMakeFiles/MD407-MATRIX.elf.dir/libraries/FreeRTOS-Kernel/tasks.c.obj (symbol from plugin)
                                                  CMakeFiles/MD407-MATRIX.elf.dir/libraries/FreeRTOS-Kernel/timers.c.obj (symbol from plugin)
                                                  CMakeFiles/MD407-MATRIX.elf.dir/libraries/FreeRTOS-Kernel/queue.c.obj (symbol from plugin)
                                                  CMakeFiles/MD407-MATRIX.elf.dir/libraries/FreeRTOS-Kernel/event_groups.c.obj (symbol from plugin)
xTaskGetStaticBuffers                             CMakeFiles/MD407-MATRIX.elf.dir/libraries/FreeRTOS-Kernel/tasks.c.obj (symbol from plugin)
xTaskGetTickCount                                 CMakeFiles/MD407-MATRIX.elf.dir/libraries/FreeRTOS-Kernel/tasks.c.obj (symbol from plugin)
                                                  CMakeFiles/MD407-MATRIX.elf.dir/libraries/FreeRTOS-Kernel/timers.c.obj (symbol from plugin)
xTaskGetTickCountFromISR                          CMakeFiles/MD407-MATRIX.elf.dir/libraries/FreeRTOS-Kernel/tasks.c.obj (symbol from plugin)
xTaskIncrementTick                                CMakeFiles/MD407-MATRIX.elf.dir/libraries/FreeRTOS-Kernel/tasks.c.obj (symbol from plugin)
                                                  CMakeFiles/MD407-MATRIX.elf.dir/libraries/FreeRTOS-Kernel/portable/GCC/ARM_CM4F/port.c.obj (symbol from plugin)
xTaskPriorityDisinherit                           CMakeFiles/MD407-MATRIX.elf.dir/libraries/FreeRTOS-Kernel/tasks.c.obj (symbol from plugin)
                                                  CMakeFiles/MD407-MATRIX.elf.dir/libraries/FreeRTOS-Kernel/queue.c.obj (symbol from plugin)
xTaskPriorityInherit                              CMakeFiles/MD407-MATRIX.elf.dir/libraries/FreeRTOS-Kernel/tasks.c.obj (symbol from plugin)
                                                  CMakeFiles/MD407-MATRIX.elf.dir/libraries/FreeRTOS-Kernel/queue.c.obj (symbol from plugin)
xTaskRemoveFromEventList                          CMakeFiles/MD407-MATRIX.elf.dir/libraries/FreeRTOS-Kernel/tasks.c.obj (symbol from plugin)
                                                  CMakeFiles/MD407-MATRIX.elf.dir/libraries/FreeRTOS-Kernel/queue.c.obj (symbol from plugin)
xTaskResumeAll                                    CMakeFiles/MD407-MATRIX.elf.dir/libraries/FreeRTOS-Kernel/tasks.c.obj (symbol from plugin)
                                                  CMakeFiles/MD407-MATRIX.elf.dir/libraries/FreeRTOS-Kernel/timers.c.obj (symbol from plugin)
                                                  CMakeFiles/MD407-MATRIX.elf.dir/libraries/FreeRTOS-Kernel/stream_buffer.c.obj (symbol from plugin)
                                                  CMakeFiles/MD407-MATRIX.elf.dir/libraries/FreeRTOS-Kernel/queue.c.obj (symbol from plugin)
                                                  CMakeFiles/MD407-MATRIX.elf.dir/libraries/FreeRTOS-Kernel/event_groups.c.obj (symbol from plugin)
xTaskResumeFromISR                                CMakeFiles/MD407-MATRIX.elf.dir/libraries/FreeRTOS-Kernel/tasks.c.obj (symbol from plugin)
xTimeInPICO                                       CMakeFiles/MD407-MATRIX.elf.dir/src/main.c.obj (symbol from plugin)
xTimeOutPICO                                      CMakeFiles/MD407-MATRIX.elf.dir/src/main.c.obj (symbol from plugin)
xTimerCreateStatic                                CMakeFiles/MD407-MATRIX.elf.dir/libraries/FreeRTOS-Kernel/timers.c.obj (symbol from plugin)
xTimerCreateTimerTask                             CMakeFiles/MD407-MATRIX.elf.dir/libraries/FreeRTOS-Kernel/timers.c.obj (symbol from plugin)
                                                  CMakeFiles/MD407-MATRIX.elf.dir/libraries/FreeRTOS-Kernel/tasks.c.obj (symbol from plugin)
xTimerGenericCommandFromISR                       CMakeFiles/MD407-MATRIX.elf.dir/libraries/FreeRTOS-Kernel/timers.c.obj (symbol from plugin)
xTimerGenericCommandFromTask                      CMakeFiles/MD407-MATRIX.elf.dir/libraries/FreeRTOS-Kernel/timers.c.obj (symbol from plugin)
xTimerGetExpiryTime                               CMakeFiles/MD407-MATRIX.elf.dir/libraries/FreeRTOS-Kernel/timers.c.obj (symbol from plugin)
xTimerGetPeriod                                   CMakeFiles/MD407-MATRIX.elf.dir/libraries/FreeRTOS-Kernel/timers.c.obj (symbol from plugin)
xTimerGetReloadMode                               CMakeFiles/MD407-MATRIX.elf.dir/libraries/FreeRTOS-Kernel/timers.c.obj (symbol from plugin)
xTimerGetStaticBuffer                             CMakeFiles/MD407-MATRIX.elf.dir/libraries/FreeRTOS-Kernel/timers.c.obj (symbol from plugin)
xTimerGetTimerDaemonTaskHandle                    CMakeFiles/MD407-MATRIX.elf.dir/libraries/FreeRTOS-Kernel/timers.c.obj (symbol from plugin)
                                                  CMakeFiles/MD407-MATRIX.elf.dir/libraries/FreeRTOS-Kernel/tasks.c.obj (symbol from plugin)
xTimerIsTimerActive                               CMakeFiles/MD407-MATRIX.elf.dir/libraries/FreeRTOS-Kernel/timers.c.obj (symbol from plugin)
xTotalPICO                                        CMakeFiles/MD407-MATRIX.elf.dir/src/main.c.obj (symbol from plugin)
